(lp0
(ccopy_reg
_reconstructor
p1
(cgenetic_algo
Genome
p2
c__builtin__
object
p3
Ntp4
Rp5
(dp6
S'input_size'
p7
I128
sS'genes'
p8
(lp9
g1
(cgenetic_algo
Gene
p10
g3
Ntp11
Rp12
(dp13
S'data'
p14
(lp15
I128
aI1
aF0.38912814340424784
aI57
aF0.05669672300254825
aI283
aI4
aF0.5522494025273031
aF0.581898219906686
aI301
asbasS'output_size'
p16
I4
sbcnumpy.core.multiarray
scalar
p17
(cnumpy
dtype
p18
(S'f8'
p19
I0
I1
tp20
Rp21
(I3
S'<'
p22
NNNI-1
I-1
I0
tp23
bS'F\xd8c\x9c\xb0\xbb\xf2?'
p24
tp25
Rp26
tp27
a(g1
(g2
g3
Ntp28
Rp29
(dp30
g7
I128
sg8
(lp31
g1
(g10
g3
Ntp32
Rp33
(dp34
g14
(lp35
I128
aI1
aF0.5408532384048255
aI54
aF0.03937214648053686
aI259
aI4
aF0.6619087525586076
aF0.513571443739049
aI353
asbasg16
I4
sbg17
(g21
S'?\xf7m\xa2=\xa7\xfb?'
p36
tp37
Rp38
tp39
a(g1
(g2
g3
Ntp40
Rp41
(dp42
g7
I128
sg8
(lp43
g1
(g10
g3
Ntp44
Rp45
(dp46
g14
(lp47
I128
aI1
aF0.46499069090453665
aI55
aF0.04803443474154255
aI271
aI4
aF0.6070790775429553
aF0.5477348318228674
aI327
asbasg16
I4
sbg17
(g21
S'\xc6\xfd\xe80\x8e\x9a\xff?'
p48
tp49
Rp50
tp51
a(g1
(g2
g3
Ntp52
Rp53
(dp54
g7
I128
sg8
(lp55
g1
(g10
g3
Ntp56
Rp57
(dp58
g14
(lp59
I128
aI1
aF0.46499069090453665
aI55
aF0.04803443474154255
aI271
aI4
aF0.6070790775429553
aF0.5477348318228674
aI327
asbasg16
I4
sbg17
(g21
S'\x86\x83\xadVX\xa7\xf4?'
p60
tp61
Rp62
tp63
a(g1
(g2
g3
Ntp64
Rp65
(dp66
g7
I128
sg8
(lp67
g1
(g10
g3
Ntp68
Rp69
(dp70
g14
(lp71
I128
aI1
aF0.5309413099713083
aI71
aF0.08869698875439143
aI240
aI4
aF0.6542117862917798
aF0.6134884597624881
aI354
asbasg16
I4
sbg17
(g21
S'\xb0\x08\xb3\x11\xa97\x00@'
p72
tp73
Rp74
tp75
a(g1
(g2
g3
Ntp76
Rp77
(dp78
g7
I128
sg8
(lp79
g1
(g10
g3
Ntp80
Rp81
(dp82
g14
(lp83
I128
aI1
aF0.5309413099713083
aI71
aF0.08869698875439143
aI240
aI4
aF0.6542117862917798
aF0.6134884597624881
aI354
asbasg16
I4
sbg17
(g21
S'\x12\xa0u\x92\xc9\xe2\x03@'
p84
tp85
Rp86
tp87
a(g1
(g2
g3
Ntp88
Rp89
(dp90
g7
I128
sg8
(lp91
g1
(g10
g3
Ntp92
Rp93
(dp94
g14
(lp95
I128
aI1
aF0.598729639146774
aI55
aF0.05259651251400836
aI226
aI4
aF0.6531587502518863
aF0.7251209753427461
aI281
asbasg16
I4
sbg17
(g21
S'\xea\x99\xe5\xac\xb52\x02@'
p96
tp97
Rp98
tp99
a(g1
(g2
g3
Ntp100
Rp101
(dp102
g7
I128
sg8
(lp103
g1
(g10
g3
Ntp104
Rp105
(dp106
g14
(lp107
I128
aI1
aF0.598729639146774
aI55
aF0.05259651251400836
aI226
aI4
aF0.6531587502518863
aF0.7251209753427461
aI281
asbasg16
I4
sbg17
(g21
S'\xd2q\x04\x1f\x0fd\x01@'
p108
tp109
Rp110
tp111
a(g1
(g2
g3
Ntp112
Rp113
(dp114
g7
I128
sg8
(lp115
g1
(g10
g3
Ntp116
Rp117
(dp118
g14
(lp119
I128
aI1
aF0.5152177081469376
aI57
aF0.056403048656160554
aI251
aI4
aF0.6524655852632498
aF0.6279536667213368
aI300
asbasg16
I4
sbg17
(g21
S'\x1d\x8c\x96b\xdf}\xf6?'
p120
tp121
Rp122
tp123
a(g1
(g2
g3
Ntp124
Rp125
(dp126
g7
I128
sg8
(lp127
g1
(g10
g3
Ntp128
Rp129
(dp130
g14
(lp131
I128
aI1
aF0.5152177081469376
aI57
aF0.056403048656160554
aI251
aI4
aF0.6524655852632498
aF0.6279536667213368
aI300
asbasg16
I4
sbI-50
tp132
a(g1
(g2
g3
Ntp133
Rp134
(dp135
g7
I128
sg8
(lp136
g1
(g10
g3
Ntp137
Rp138
(dp139
g14
(lp140
I128
aI1
aF0.37269196587856546
aI47
aF0.06254782530137926
aI217
aI4
aF0.5807318322685846
aF0.5991611367434012
aI345
asbasg16
I4
sbg17
(g21
S'\xaaMb\x81l\xd4\x00@'
p141
tp142
Rp143
tp144
a(g1
(g2
g3
Ntp145
Rp146
(dp147
g7
I128
sg8
(lp148
g1
(g10
g3
Ntp149
Rp150
(dp151
g14
(lp152
I128
aI1
aF0.37269196587856546
aI47
aF0.06254782530137926
aI217
aI4
aF0.5807318322685846
aF0.5991611367434012
aI345
asbasg16
I4
sbg17
(g21
S'\xa3\x9c\xd9R\xda\xbd\xff?'
p153
tp154
Rp155
tp156
a(g1
(g2
g3
Ntp157
Rp158
(dp159
g7
I128
sg8
(lp160
g1
(g10
g3
Ntp161
Rp162
(dp163
g14
(lp164
I128
aI1
aF0.5697914387757997
aI54
aF0.05114544763347657
aI198
aI4
aF0.42593114230024864
aF0.6193462095408975
aI269
asbasg16
I4
sbg17
(g21
S'\xb4;\x1f\xd5\xa1\x87\x00@'
p165
tp166
Rp167
tp168
a(g1
(g2
g3
Ntp169
Rp170
(dp171
g7
I128
sg8
(lp172
g1
(g10
g3
Ntp173
Rp174
(dp175
g14
(lp176
I128
aI1
aF0.5697914387757997
aI54
aF0.05114544763347657
aI198
aI4
aF0.42593114230024864
aF0.6193462095408975
aI269
asbasg16
I4
sbg17
(g21
S'\xe4"rP2+\x03@'
p177
tp178
Rp179
tp180
a(g1
(g2
g3
Ntp181
Rp182
(dp183
g7
I128
sg8
(lp184
g1
(g10
g3
Ntp185
Rp186
(dp187
g14
(lp188
I128
aI1
aF0.6288329192320502
aI41
aF0.1177630411672578
aI213
aI4
aF0.6059403239597374
aF0.6431754917635608
aI228
asbasg16
I4
sbg17
(g21
S"@'\xbeZO\x9f\xfa?"
p189
tp190
Rp191
tp192
a(g1
(g2
g3
Ntp193
Rp194
(dp195
g7
I128
sg8
(lp196
g1
(g10
g3
Ntp197
Rp198
(dp199
g14
(lp200
I128
aI1
aF0.6288329192320502
aI41
aF0.1177630411672578
aI213
aI4
aF0.6059403239597374
aF0.6431754917635608
aI228
asbasg16
I4
sbg17
(g21
S'\xd0\x93w8~t\xf3?'
p201
tp202
Rp203
tp204
a(g1
(g2
g3
Ntp205
Rp206
(dp207
g7
I128
sg8
(lp208
g1
(g10
g3
Ntp209
Rp210
(dp211
g14
(lp212
I128
aI1
aF0.37207064498148784
aI40
aF0.22944507777733833
aI236
aI4
aF0.6609889696991083
aF0.5626818298950533
aI225
asbasg16
I4
sbg17
(g21
S'\x86\xaaf\xef\x0e\xeb\xec?'
p213
tp214
Rp215
tp216
a(g1
(g2
g3
Ntp217
Rp218
(dp219
g7
I128
sg8
(lp220
g1
(g10
g3
Ntp221
Rp222
(dp223
g14
(lp224
I128
aI1
aF0.37207064498148784
aI40
aF0.22944507777733833
aI236
aI4
aF0.6609889696991083
aF0.5626818298950533
aI225
asbasg16
I4
sbg17
(g21
S"\xa5\x00\x8f'\x13m\xfc?"
p225
tp226
Rp227
tp228
a(g1
(g2
g3
Ntp229
Rp230
(dp231
g7
I128
sg8
(lp232
g1
(g10
g3
Ntp233
Rp234
(dp235
g14
(lp236
I128
aI1
aF0.37983079609112236
aI58
aF0.21973104092972406
aI295
aI4
aF0.6304176246200903
aF0.5423398276912512
aI346
asbasg16
I4
sbg17
(g21
S'\xc2l\x81X\x99\x13\x01@'
p237
tp238
Rp239
tp240
a(g1
(g2
g3
Ntp241
Rp242
(dp243
g7
I128
sg8
(lp244
g1
(g10
g3
Ntp245
Rp246
(dp247
g14
(lp248
I128
aI1
aF0.37983079609112236
aI58
aF0.21973104092972406
aI295
aI4
aF0.6304176246200903
aF0.5423398276912512
aI346
asbasg16
I4
sbg17
(g21
S'\x86\xee\xd8\xd5\xb0\xf4\xea?'
p249
tp250
Rp251
tp252
a(g1
(g2
g3
Ntp253
Rp254
(dp255
g7
I128
sg8
(lp256
g1
(g10
g3
Ntp257
Rp258
(dp259
g14
(lp260
I128
aI2
aF0.38912814340424784
aI57
aF0.05669672300254825
aI283
aI4
aF0.5522494025273031
aF0.581898219906686
aI301
asbag1
(g10
g3
Ntp261
Rp262
(dp263
g14
(lp264
I2
aI1
aF0.08970771245098608
aI87
aF0.346798548810626
aI362
aI4
aF0.1756194084932039
aF0.5231425373893746
aI48
asbasg16
I4
sbg17
(g21
S'\xe5\xd6\xb1\xf3\x0b\xd7\xfa?'
p265
tp266
Rp267
tp268
a(g1
(g2
g3
Ntp269
Rp270
(dp271
g7
I128
sg8
(lp272
g1
(g10
g3
Ntp273
Rp274
(dp275
g14
(lp276
I128
aI32
aF0.5408532384048255
aI54
aF0.03937214648053686
aI259
aI4
aF0.6619087525586076
aF0.513571443739049
aI353
asbag1
(g10
g3
Ntp277
Rp278
(dp279
g14
(lp280
I32
aI1
aF0.43369019207715664
aI60
aF0.10701834829998425
aI217
aI4
aF0.9491513485650537
aF0.891997616966908
aI66
asbasg16
I4
sbI-50
tp281
a(g1
(g2
g3
Ntp282
Rp283
(dp284
g7
I128
sg8
(lp285
g1
(g10
g3
Ntp286
Rp287
(dp288
g14
(lp289
I128
aI16
aF0.5465516970378426
aI53
aF0.03873585870102825
aI255
aI4
aF0.5023767965437868
aF0.7009539976434984
aI296
asbag1
(g10
g3
Ntp290
Rp291
(dp292
g14
(lp293
I16
aI1
aF0.20850456940846718
aI29
aF0.2614298586184701
aI265
aI4
aF0.9677200195615258
aF0.383622866359435
aI295
asbasg16
I4
sbI-50
tp294
a(g1
(g2
g3
Ntp295
Rp296
(dp297
g7
I128
sg8
(lp298
g1
(g10
g3
Ntp299
Rp300
(dp301
g14
(lp302
I128
aI1
aF0.598729639146774
aI55
aF0.06291874878641629
aI226
aI4
aF0.5636165680650855
aF0.7251209753427461
aI281
asbasg16
I4
sbg17
(g21
S'k\xeb,\xebEG\x03@'
p303
tp304
Rp305
tp306
a(g1
(g2
g3
Ntp307
Rp308
(dp309
g7
I128
sg8
(lp310
g1
(g10
g3
Ntp311
Rp312
(dp313
g14
(lp314
I128
aI1
aF0.42564855170046517
aI60
aF0.06220812713347285
aI200
aI4
aF0.6936630071063183
aF0.5090437602498747
aI401
asbasg16
I4
sbg17
(g21
S'\xa5b\xbb\x81\xa6\xe9\xfe?'
p315
tp316
Rp317
tp318
a(g1
(g2
g3
Ntp319
Rp320
(dp321
g7
I128
sg8
(lp322
g1
(g10
g3
Ntp323
Rp324
(dp325
g14
(lp326
I128
aI1
aF0.6509075812557056
aI57
aF0.06645716632698848
aI198
aI4
aF0.8039407039599857
aF0.7492879530419937
aI266
asbasg16
I4
sbg17
(g21
S'\x98<Qp[\xc3\x00@'
p327
tp328
Rp329
tp330
a(g1
(g2
g3
Ntp331
Rp332
(dp333
g7
I128
sg8
(lp334
g1
(g10
g3
Ntp335
Rp336
(dp337
g14
(lp338
I128
aI1
aF0.8978134585055758
aI83
aF0.11518585037531001
aI281
aI4
aF0.6147605654772412
aF0.7179331592751015
aI307
asbasg16
I4
sbg17
(g21
S'\x8f\xaf\xcd\xd4\x02\xb5\xf6?'
p339
tp340
Rp341
tp342
a(g1
(g2
g3
Ntp343
Rp344
(dp345
g7
I128
sg8
(lp346
g1
(g10
g3
Ntp347
Rp348
(dp349
g14
(lp350
I128
aI16
aF0.5932078248825066
aI61
aF0.05009084188182738
aI258
aI4
aF0.7154486514757523
aF0.5956168720934527
aI340
asbag1
(g10
g3
Ntp351
Rp352
(dp353
g14
(lp354
I16
aI1
aF0.8719938336015965
aI91
aF0.9977569603860275
aI356
aI4
aF0.9948191083012367
aF0.16241419207777474
aI23
asbasg16
I4
sbI-50
tp355
a(g1
(g2
g3
Ntp356
Rp357
(dp358
g7
I128
sg8
(lp359
g1
(g10
g3
Ntp360
Rp361
(dp362
g14
(lp363
I128
aI1
aF0.2678899928199612
aI58
aF0.06993374236351117
aI280
aI4
aF0.5681805413114094
aF0.6204481381063468
aI310
asbasg16
I4
sbg17
(g21
S'!\x8ep_z2\xf1?'
p364
tp365
Rp366
tp367
a(g1
(g2
g3
Ntp368
Rp369
(dp370
g7
I128
sg8
(lp371
g1
(g10
g3
Ntp372
Rp373
(dp374
g14
(lp375
I128
aI1
aF0.43722759141136847
aI53
aF0.06271525543049374
aI245
aI4
aF0.007159110701559279
aF0.6602904613492209
aI261
asbasg16
I4
sbg17
(g21
S'Z\xe2\xa19\xda\xb1\xf0?'
p376
tp377
Rp378
tp379
a(g1
(g2
g3
Ntp380
Rp381
(dp382
g7
I128
sg8
(lp383
g1
(g10
g3
Ntp384
Rp385
(dp386
g14
(lp387
I128
aI1
aF0.47749393893716974
aI37
aF0.055161908239247326
aI155
aI4
aF0.5932831232257597
aF0.5778741353804556
aI380
asbasg16
I4
sbg17
(g21
S'd4G\xc6>5\xf4?'
p388
tp389
Rp390
tp391
a(g1
(g2
g3
Ntp392
Rp393
(dp394
g7
I128
sg8
(lp395
g1
(g10
g3
Ntp396
Rp397
(dp398
g14
(lp399
I128
aI4
aF0.283780192512879
aI54
aF0.03937214648053686
aI170
aI4
aF0.28824571653541176
aF0.513571443739049
aI257
asbag1
(g10
g3
Ntp400
Rp401
(dp402
g14
(lp403
I4
aI1
aF0.49320075751779124
aI29
aF0.783357537690334
aI310
aI4
aF0.7886836625465059
aF0.7410577992664574
aI92
asbasg16
I4
sbI-50
tp404
a(g1
(g2
g3
Ntp405
Rp406
(dp407
g7
I128
sg8
(lp408
g1
(g10
g3
Ntp409
Rp410
(dp411
g14
(lp412
I128
aI1
aF0.6307001398732817
aI37
aF0.18610696335028903
aI225
aI4
aF0.42114564951853417
aF0.44851783881655277
aI278
asbasg16
I4
sbg17
(g21
S'\xc0\xd4\xfdV\x9f5\xf8?'
p413
tp414
Rp415
tp416
a(g1
(g2
g3
Ntp417
Rp418
(dp419
g7
I128
sg8
(lp420
g1
(g10
g3
Ntp421
Rp422
(dp423
g14
(lp424
I128
aI4
aF0.7222780053488753
aI35
aF0.09992602115364284
aI206
aI4
aF0.8724071310009236
aF0.5316441622909117
aI137
asbag1
(g10
g3
Ntp425
Rp426
(dp427
g14
(lp428
I4
aI1
aF0.5876623362755617
aI96
aF0.5976102713550044
aI202
aI4
aF0.8326451368224977
aF0.5813925141212435
aI30
asbasg16
I4
sbg17
(g21
S"E\xb4'R\xa3\x01\xf1?"
p429
tp430
Rp431
tp432
a(g1
(g2
g3
Ntp433
Rp434
(dp435
g7
I128
sg8
(lp436
g1
(g10
g3
Ntp437
Rp438
(dp439
g14
(lp440
I128
aI1
aF0.48498174158301643
aI47
aF0.5316110233696439
aI357
aI4
aF0.28951114825500024
aF0.6584451963056409
aI260
asbasg16
I4
sbg17
(g21
S'\xc9\x8f\xbc|\xa0 \xd6\xbf'
p441
tp442
Rp443
tp444
a(g1
(g2
g3
Ntp445
Rp446
(dp447
g7
I128
sg8
(lp448
g1
(g10
g3
Ntp449
Rp450
(dp451
g14
(lp452
I128
aI1
aF0.6402127223625218
aI46
aF0.3589641344010338
aI266
aI4
aF0.773677039127988
aF0.5166226466090674
aI313
asbasg16
I4
sbg17
(g21
S'\x81\x83\xadVX\xa7\xec?'
p453
tp454
Rp455
tp456
a(g1
(g2
g3
Ntp457
Rp458
(dp459
g7
I128
sg8
(lp460
g1
(g10
g3
Ntp461
Rp462
(dp463
g14
(lp464
I128
aI1
aF0.4550437756337327
aI29
aF0.5558534502504451
aI268
aI4
aF0.6784564465550813
aF0.6382496156276249
aI210
asbasg16
I4
sbg17
(g21
S'\x97\xbb%L\xdd\xfa\xdd\xbf'
p465
tp466
Rp467
tp468
a(g1
(g2
g3
Ntp469
Rp470
(dp471
g7
I128
sg8
(lp472
g1
(g10
g3
Ntp473
Rp474
(dp475
g14
(lp476
I128
aI1
aF0.060035052741589046
aI81
aF0.5419154156862902
aI220
aI4
aF0.577896078890299
aF0.5990478136262256
aI372
asbasg16
I4
sbg17
(g21
S'\xc1[1u\xa2\xc2\xf0\xbf'
p477
tp478
Rp479
tp480
a(g1
(g2
g3
Ntp481
Rp482
(dp483
g7
I128
sg8
(lp484
g1
(g10
g3
Ntp485
Rp486
(dp487
g14
(lp488
I128
aI1
aF0.7333337573132386
aI59
aF0.2702988230720908
aI256
aI4
aF0.6819379732744387
aF0.7234307664687136
aI351
asbasg16
I4
sbg17
(g21
S'\xd7\x98)\x10\rU\xf3?'
p489
tp490
Rp491
tp492
a(g1
(g2
g3
Ntp493
Rp494
(dp495
g7
I128
sg8
(lp496
g1
(g10
g3
Ntp497
Rp498
(dp499
g14
(lp500
I128
aI1
aF0.13990402637263055
aI55
aF0.06291874878641629
aI226
aI4
aF0.5636165680650855
aF0.7251209753427461
aI281
asbasg16
I4
sbg17
(g21
S'\x87]\x1fIyl\x01@'
p501
tp502
Rp503
tp504
a(g1
(g2
g3
Ntp505
Rp506
(dp507
g7
I128
sg8
(lp508
g1
(g10
g3
Ntp509
Rp510
(dp511
g14
(lp512
I128
aI1
aF0.38912814340424784
aI69
aF0.05669672300254825
aI42
aI4
aF0.5522494025273031
aF0.3899582520604197
aI301
asbasg16
I4
sbg17
(g21
S'U\xf6ZW\xd0K\xf7?'
p513
tp514
Rp515
tp516
a(g1
(g2
g3
Ntp517
Rp518
(dp519
g7
I128
sg8
(lp520
g1
(g10
g3
Ntp521
Rp522
(dp523
g14
(lp524
I128
aI1
aF0.5408532384048255
aI54
aF0.47422322628246416
aI259
aI4
aF0.6619087525586076
aF0.4801258385593946
aI353
asbasg16
I4
sbg17
(g21
S'\x01\xe49T\xcb\x11\xd3?'
p525
tp526
Rp527
tp528
a(g1
(g2
g3
Ntp529
Rp530
(dp531
g7
I128
sg8
(lp532
g1
(g10
g3
Ntp533
Rp534
(dp535
g14
(lp536
I128
aI1
aF0.492588501018957
aI53
aF0.14829128105243194
aI255
aI4
aF0.9420850268481179
aF0.8905422341466225
aI296
asbasg16
I4
sbg17
(g21
S'\xb2\xc3\xa6\xd8\x1d\x1e\xf4?'
p537
tp538
Rp539
tp540
a(g1
(g2
g3
Ntp541
Rp542
(dp543
g7
I128
sg8
(lp544
g1
(g10
g3
Ntp545
Rp546
(dp547
g14
(lp548
I128
aI1
aF0.598729639146774
aI55
aF0.06291874878641629
aI226
aI4
aF0.5636165680650855
aF0.7251209753427461
aI108
asbasg16
I4
sbg17
(g21
S'(o\xcc!\xda\x88\xf4?'
p549
tp550
Rp551
tp552
a(g1
(g2
g3
Ntp553
Rp554
(dp555
g7
I128
sg8
(lp556
g1
(g10
g3
Ntp557
Rp558
(dp559
g14
(lp560
I128
aI1
aF0.8350272966563006
aI10
aF0.06220812713347285
aI12
aI4
aF0.6936630071063183
aF0.5090437602498747
aI401
asbasg16
I4
sbg17
(g21
S'\x8e\xfa \xb3\xdb\xae\xf1?'
p561
tp562
Rp563
tp564
a(g1
(g2
g3
Ntp565
Rp566
(dp567
g7
I128
sg8
(lp568
g1
(g10
g3
Ntp569
Rp570
(dp571
g14
(lp572
I128
aI1
aF0.4772062389959667
aI39
aF0.06645716632698848
aI159
aI4
aF0.8039407039599857
aF0.7492879530419937
aI10
asbasg16
I4
sbg17
(g21
S'\x00\x00\x00\x00\x00\x00\x00\xc0'
p573
tp574
Rp575
tp576
a(g1
(g2
g3
Ntp577
Rp578
(dp579
g7
I128
sg8
(lp580
g1
(g10
g3
Ntp581
Rp582
(dp583
g14
(lp584
I128
aI16
aF0.7139957882221204
aI83
aF0.21957742876280917
aI415
aI84
aF0.6147605654772412
aF0.7179331592751015
aI427
asbag1
(g10
g3
Ntp585
Rp586
(dp587
g14
(lp588
I16
aI1
aF0.4922088282990934
aI48
aF0.973741757962473
aI366
aI4
aF0.08282242384384952
aF0.9730087795598871
aI458
asbasg16
I4
sbI-50
tp589
a(g1
(g2
g3
Ntp590
Rp591
(dp592
g7
I128
sg8
(lp593
g1
(g10
g3
Ntp594
Rp595
(dp596
g14
(lp597
I128
aI1
aF0.6114595219298952
aI86
aF0.8160885363294836
aI258
aI4
aF0.7154486514757523
aF0.5956168720934527
aI291
asbasg16
I4
sbg17
(g21
S'\\\xcc\xc8\xb1\xd8\\\xf6\xbf'
p598
tp599
Rp600
tp601
a(g1
(g2
g3
Ntp602
Rp603
(dp604
g7
I128
sg8
(lp605
g1
(g10
g3
Ntp606
Rp607
(dp608
g14
(lp609
I128
aI1
aF0.9334295065254825
aI58
aF0.7019781919437843
aI280
aI4
aF0.5681805413114094
aF0.8904811599874614
aI103
asbasg16
I4
sbg17
(g21
S'x\x1b\r\xd1\x15\xdd\xd6\xbf'
p610
tp611
Rp612
tp613
a(g1
(g2
g3
Ntp614
Rp615
(dp616
g7
I128
sg8
(lp617
g1
(g10
g3
Ntp618
Rp619
(dp620
g14
(lp621
I128
aI1
aF0.43722759141136847
aI16
aF0.06271525543049374
aI279
aI4
aF0.5827287390547754
aF0.46012162207926266
aI492
asbasg16
I4
sbg17
(g21
S'\x00\x00\x00\x00\x00\x00\x00\xc0'
p622
tp623
Rp624
tp625
a(g1
(g2
g3
Ntp626
Rp627
(dp628
g7
I128
sg8
(lp629
g1
(g10
g3
Ntp630
Rp631
(dp632
g14
(lp633
I128
aI1
aF0.47749393893716974
aI49
aF0.38042533146452784
aI155
aI4
aF0.5932831232257597
aF0.5778741353804556
aI385
asbasg16
I4
sbg17
(g21
S'\xc4\x9e7\xe8&\xcd\xf2?'
p634
tp635
Rp636
tp637
a(g1
(g2
g3
Ntp638
Rp639
(dp640
g7
I128
sg8
(lp641
g1
(g10
g3
Ntp642
Rp643
(dp644
g14
(lp645
I128
aI1
aF0.5408532384048255
aI54
aF0.03937214648053686
aI436
aI4
aF0.8956314106788834
aF0.4151171736252539
aI257
asbasg16
I4
sbg17
(g21
S'tH\xc9\xde&\xd5\x04@'
p646
tp647
Rp648
tp649
a(g1
(g2
g3
Ntp650
Rp651
(dp652
g7
I128
sg8
(lp653
g1
(g10
g3
Ntp654
Rp655
(dp656
g14
(lp657
I128
aI1
aF0.6978167601471721
aI89
aF0.08004388123577554
aI335
aI4
aF0.8679238382682596
aF0.6332555722288019
aI212
asbasg16
I4
sbg17
(g21
S'\x9f\xe6c\xf4\xcd;\xeb?'
p658
tp659
Rp660
tp661
a(g1
(g2
g3
Ntp662
Rp663
(dp664
g7
I128
sg8
(lp665
g1
(g10
g3
Ntp666
Rp667
(dp668
g14
(lp669
I128
aI1
aF0.7222780053488753
aI35
aF0.08934441319903008
aI277
aI4
aF0.6068583646760562
aF0.5316441622909117
aI137
asbasg16
I4
sbg17
(g21
S'T\xaa\xa4\x04\xff\x17\xf9?'
p670
tp671
Rp672
tp673
a(g1
(g2
g3
Ntp674
Rp675
(dp676
g7
I128
sg8
(lp677
g1
(g10
g3
Ntp678
Rp679
(dp680
g14
(lp681
I128
aI1
aF0.5598490783169283
aI41
aF0.15548220109874006
aI258
aI4
aF0.5776334066731632
aF0.6530954112983198
aI175
asbasg16
I4
sbg17
(g21
S'L\x86 7!\xa1\x00@'
p682
tp683
Rp684
tp685
a(g1
(g2
g3
Ntp686
Rp687
(dp688
g7
I128
sg8
(lp689
g1
(g10
g3
Ntp690
Rp691
(dp692
g14
(lp693
I128
aI1
aF0.021863284614100365
aI41
aF0.07556299343151629
aI314
aI4
aF0.773677039127988
aF0.5937194974991948
aI313
asbasg16
I4
sbg17
(g21
S'\xca\xb0\x0f \xbd\xa3\xf0?'
p694
tp695
Rp696
tp697
a(g1
(g2
g3
Ntp698
Rp699
(dp700
g7
I128
sg8
(lp701
g1
(g10
g3
Ntp702
Rp703
(dp704
g14
(lp705
I128
aI1
aF0.08017829534454468
aI46
aF0.9253613666023782
aI262
aI4
aF0.1408256298292544
aF0.8310912605934881
aI309
asbasg16
I4
sbg17
(g21
S'\xe7\xbc\x80\tO\x16\xf9\xbf'
p706
tp707
Rp708
tp709
a(g1
(g2
g3
Ntp710
Rp711
(dp712
g7
I128
sg8
(lp713
g1
(g10
g3
Ntp714
Rp715
(dp716
g14
(lp717
I128
aI1
aF0.07065794358533262
aI48
aF0.15428742704411383
aI328
aI4
aF0.5267635540186443
aF0.45258441157402485
aI438
asbasg16
I4
sbg17
(g21
S't\xa8\x96#\xe6z\xfa?'
p718
tp719
Rp720
tp721
a(g1
(g2
g3
Ntp722
Rp723
(dp724
g7
I128
sg8
(lp725
g1
(g10
g3
Ntp726
Rp727
(dp728
g14
(lp729
I128
aI1
aF0.6707491365768273
aI54
aF0.055233053435037226
aI105
aI4
aF0.8809096393012444
aF0.6305795564914337
aI382
asbasg16
I4
sbg17
(g21
S'\xba\xcc\x93\xff\x98d\xfe?'
p730
tp731
Rp732
tp733
a(g1
(g2
g3
Ntp734
Rp735
(dp736
g7
I128
sg8
(lp737
g1
(g10
g3
Ntp738
Rp739
(dp740
g14
(lp741
I128
aI1
aF0.8018842258216138
aI88
aF0.06291874878641629
aI296
aI4
aF0.7228768831959405
aF0.7251209753427461
aI239
asbasg16
I4
sbg17
(g21
S'\xc2C\x07\\\x1cl\xff?'
p742
tp743
Rp744
tp745
a(g1
(g2
g3
Ntp746
Rp747
(dp748
g7
I128
sg8
(lp749
g1
(g10
g3
Ntp750
Rp751
(dp752
g14
(lp753
I128
aI128
aF0.2975599042458631
aI19
aF0.8782795227049256
aI134
aI173
aF0.7727443672911597
aF0.40625525131466145
aI472
asbag1
(g10
g3
Ntp754
Rp755
(dp756
g14
(lp757
I128
aI8
aF0.7917311823829577
aI89
aF0.3064217402227124
aI339
aI47
aF0.5007494615424253
aF0.2809118329838417
aI386
asbag1
(g10
g3
Ntp758
Rp759
(dp760
g14
(lp761
I8
aI4
aF0.6011393947731292
aI73
aF0.504185497037949
aI434
aI65
aF0.8968356636234968
aF0.6174398944085383
aI62
asbag1
(g10
g3
Ntp762
Rp763
(dp764
g14
(lp765
I4
aI2
aF0.42621162267232027
aI93
aF0.7001215433064107
aI98
aI31
aF0.4967818627761823
aF0.3497737359965851
aI114
asbag1
(g10
g3
Ntp766
Rp767
(dp768
g14
(lp769
I2
aI2
aF0.1319973407640237
aI76
aF0.5762372217588116
aI83
aI69
aF0.3235701739225004
aF0.35396600932757993
aI204
asbag1
(g10
g3
Ntp770
Rp771
(dp772
g14
(lp773
I2
aI2
aF0.5136767675914159
aI80
aF0.4544650935657565
aI468
aI36
aF0.36875089334682176
aF0.4122606439427263
aI268
asbag1
(g10
g3
Ntp774
Rp775
(dp776
g14
(lp777
I2
aI2
aF0.4652186733762248
aI77
aF0.2634237945886113
aI68
aI9
aF0.11069158683837621
aF0.0045190078387762345
aI375
asbag1
(g10
g3
Ntp778
Rp779
(dp780
g14
(lp781
I2
aI1
aF0.2921386033955161
aI61
aF0.09131815205296057
aI281
aI58
aF0.12511474604524764
aF0.3896667088477125
aI448
asbag1
(g10
g3
Ntp782
Rp783
(dp784
g14
(lp785
I1
aI1
aF0.9997201469395813
aI76
aF0.037207085646627225
aI292
aI4
aF0.2864593370110837
aF0.4673085249314687
aI5
asbasg16
I4
sbI-50
tp786
a(g1
(g2
g3
Ntp787
Rp788
(dp789
g7
I128
sg8
(lp790
g1
(g10
g3
Ntp791
Rp792
(dp793
g14
(lp794
I128
aI8
aF0.3359091656539661
aI58
aF0.9171332252749235
aI36
aI17
aF0.9851836582809207
aF0.6522496114510777
aI343
asbag1
(g10
g3
Ntp795
Rp796
(dp797
g14
(lp798
I8
aI2
aF0.4587968798836579
aI88
aF0.5922766749440981
aI17
aI86
aF0.2174030441387219
aF0.5657682745483923
aI329
asbag1
(g10
g3
Ntp799
Rp800
(dp801
g14
(lp802
I2
aI1
aF0.7435649031387447
aI73
aF0.6626005866338264
aI470
aI66
aF0.7849640769622516
aF0.29495053611215993
aI313
asbag1
(g10
g3
Ntp803
Rp804
(dp805
g14
(lp806
I1
aI1
aF0.03806252166435431
aI93
aF0.620721528428371
aI487
aI4
aF0.19135467538021955
aF0.32229189360512267
aI133
asbasg16
I4
sbI-50
tp807
a(g1
(g2
g3
Ntp808
Rp809
(dp810
g7
I128
sg8
(lp811
g1
(g10
g3
Ntp812
Rp813
(dp814
g14
(lp815
I128
aI16
aF0.08135416330217027
aI68
aF0.7542946737538831
aI260
aI52
aF0.5892865186623373
aF0.7408412243525607
aI35
asbag1
(g10
g3
Ntp816
Rp817
(dp818
g14
(lp819
I16
aI1
aF0.8724324861898423
aI44
aF0.6987580541308858
aI169
aI61
aF0.8833112998694039
aF0.7933673682609542
aI213
asbag1
(g10
g3
Ntp820
Rp821
(dp822
g14
(lp823
I1
aI1
aF0.2248232629179352
aI20
aF0.7935504725172118
aI91
aI4
aF0.4894919400953406
aF0.8915950835709116
aI265
asbasg16
I4
sbI-50
tp824
a(g1
(g2
g3
Ntp825
Rp826
(dp827
g7
I128
sg8
(lp828
g1
(g10
g3
Ntp829
Rp830
(dp831
g14
(lp832
I128
aI1
aF0.8898661541017734
aI39
aF0.4885678836110069
aI48
aI48
aF0.6366960489019167
aF0.5970361786271644
aI34
asbag1
(g10
g3
Ntp833
Rp834
(dp835
g14
(lp836
I1
aI1
aF0.6047764849791807
aI80
aF0.5849809617448509
aI388
aI4
aF0.08850532915584564
aF0.2887828911898922
aI291
asbasg16
I4
sbg17
(g21
S'\xa8\x9b\xa3\x8b`\x15\xe2?'
p837
tp838
Rp839
tp840
a(g1
(g2
g3
Ntp841
Rp842
(dp843
g7
I128
sg8
(lp844
g1
(g10
g3
Ntp845
Rp846
(dp847
g14
(lp848
I128
aI16
aF0.35851022582955394
aI22
aF0.21231075172618663
aI476
aI21
aF0.6313403821112913
aF0.787660721460194
aI487
asbag1
(g10
g3
Ntp849
Rp850
(dp851
g14
(lp852
I16
aI1
aF0.5247308981026102
aI22
aF0.5055966652067924
aI260
aI48
aF0.7684988456135124
aF0.5762489690805951
aI125
asbag1
(g10
g3
Ntp853
Rp854
(dp855
g14
(lp856
I1
aI1
aF0.416343922330054
aI65
aF0.19745411887760422
aI497
aI4
aF0.11666881637824689
aF0.12325436115274213
aI357
asbasg16
I4
sbI-50
tp857
a(g1
(g2
g3
Ntp858
Rp859
(dp860
g7
I128
sg8
(lp861
g1
(g10
g3
Ntp862
Rp863
(dp864
g14
(lp865
I128
aI128
aF0.4372960542702907
aI26
aF0.44457736656923474
aI99
aI201
aF0.6487491903557459
aF0.3223771731182117
aI46
asbag1
(g10
g3
Ntp866
Rp867
(dp868
g14
(lp869
I128
aI128
aF0.8755144909886879
aI87
aF0.2993062191933745
aI167
aI142
aF0.24274774536539867
aF0.20654430433766668
aI61
asbag1
(g10
g3
Ntp870
Rp871
(dp872
g14
(lp873
I128
aI128
aF0.8778059486936047
aI85
aF0.691908569661235
aI84
aI180
aF0.6419424537023449
aF0.9731371045469248
aI477
asbag1
(g10
g3
Ntp874
Rp875
(dp876
g14
(lp877
I128
aI2
aF0.9614404603369373
aI46
aF0.8266063634779327
aI442
aI27
aF0.4451681423278303
aF0.22249926892744565
aI90
asbag1
(g10
g3
Ntp878
Rp879
(dp880
g14
(lp881
I2
aI2
aF0.532561094263553
aI86
aF0.5568082075401783
aI301
aI73
aF0.8048589360178704
aF0.05853689464265932
aI139
asbag1
(g10
g3
Ntp882
Rp883
(dp884
g14
(lp885
I2
aI2
aF0.5564518827392833
aI34
aF0.931311574292784
aI187
aI69
aF0.30367153448452366
aF0.6432585837032206
aI123
asbag1
(g10
g3
Ntp886
Rp887
(dp888
g14
(lp889
I2
aI2
aF0.5960928289183679
aI27
aF0.37367004119205816
aI193
aI96
aF0.6206767038949431
aF0.2279033442406605
aI384
asbag1
(g10
g3
Ntp890
Rp891
(dp892
g14
(lp893
I2
aI2
aF0.7348857717478239
aI72
aF0.4507205361599046
aI94
aI44
aF0.7405241514472298
aF0.3476533974451236
aI229
asbag1
(g10
g3
Ntp894
Rp895
(dp896
g14
(lp897
I2
aI2
aF0.7023972187587295
aI47
aF0.9915240911984978
aI106
aI69
aF0.18758654536509956
aF0.37786038941264477
aI433
asbag1
(g10
g3
Ntp898
Rp899
(dp900
g14
(lp901
I2
aI1
aF0.6132582772318214
aI44
aF0.44053472466024857
aI139
aI76
aF0.02283760436488036
aF0.10404301939583493
aI453
asbag1
(g10
g3
Ntp902
Rp903
(dp904
g14
(lp905
I1
aI1
aF0.8326444004882684
aI23
aF0.12850973625044626
aI247
aI4
aF0.7729128684681789
aF0.16588950644283507
aI352
asbasg16
I4
sbI-50
tp906
a(g1
(g2
g3
Ntp907
Rp908
(dp909
g7
I128
sg8
(lp910
g1
(g10
g3
Ntp911
Rp912
(dp913
g14
(lp914
I128
aI32
aF0.578027991336266
aI14
aF0.8284521125842781
aI437
aI59
aF0.06683641013863317
aF0.6001774541002549
aI156
asbag1
(g10
g3
Ntp915
Rp916
(dp917
g14
(lp918
I32
aI4
aF0.8067056784704082
aI66
aF0.9537540847634589
aI401
aI44
aF0.28305735088633277
aF0.14557802747264836
aI178
asbag1
(g10
g3
Ntp919
Rp920
(dp921
g14
(lp922
I4
aI2
aF0.4606781325212238
aI23
aF0.11769135368485817
aI330
aI89
aF0.5445080363173422
aF0.9933857103505425
aI192
asbag1
(g10
g3
Ntp923
Rp924
(dp925
g14
(lp926
I2
aI2
aF0.8950142161027462
aI96
aF0.9988867705381044
aI405
aI24
aF0.974629050286454
aF0.34430058246170414
aI388
asbag1
(g10
g3
Ntp927
Rp928
(dp929
g14
(lp930
I2
aI1
aF0.45268315891019717
aI77
aF0.581179574040171
aI339
aI2
aF0.6975295421180446
aF0.011841644077727032
aI305
asbag1
(g10
g3
Ntp931
Rp932
(dp933
g14
(lp934
I1
aI1
aF0.4986833137357799
aI38
aF0.7220799657870908
aI115
aI4
aF0.20957303280141448
aF0.13097728351177873
aI398
asbasg16
I4
sbI-50
tp935
a(g1
(g2
g3
Ntp936
Rp937
(dp938
g7
I128
sg8
(lp939
g1
(g10
g3
Ntp940
Rp941
(dp942
g14
(lp943
I128
aI64
aF0.3178056511568135
aI83
aF0.3851157752059873
aI485
aI128
aF0.09722472788645942
aF0.2172570800218141
aI352
asbag1
(g10
g3
Ntp944
Rp945
(dp946
g14
(lp947
I64
aI64
aF0.7309023432898837
aI20
aF0.5481169743519637
aI74
aI142
aF0.27246327131109827
aF0.5490149227086245
aI483
asbag1
(g10
g3
Ntp948
Rp949
(dp950
g14
(lp951
I64
aI2
aF0.014995653933126074
aI72
aF0.5466282651183191
aI377
aI30
aF0.18425783711576205
aF0.20794675847003652
aI36
asbag1
(g10
g3
Ntp952
Rp953
(dp954
g14
(lp955
I2
aI2
aF0.9353705439963352
aI29
aF0.6992199176980913
aI249
aI45
aF0.24650665093518975
aF0.22460894492507844
aI138
asbag1
(g10
g3
Ntp956
Rp957
(dp958
g14
(lp959
I2
aI2
aF0.6312648326749228
aI77
aF0.5246052206161039
aI493
aI6
aF0.024911075651141368
aF0.25270446800918533
aI241
asbag1
(g10
g3
Ntp960
Rp961
(dp962
g14
(lp963
I2
aI2
aF0.196609126814126
aI82
aF0.9395969551353256
aI236
aI4
aF0.7022277276676355
aF0.13566707200882477
aI410
asbag1
(g10
g3
Ntp964
Rp965
(dp966
g14
(lp967
I2
aI2
aF0.8200943814378593
aI80
aF0.1515028326955593
aI134
aI29
aF0.3451626376870357
aF0.9424777107852547
aI166
asbag1
(g10
g3
Ntp968
Rp969
(dp970
g14
(lp971
I2
aI1
aF0.9326521157127996
aI62
aF0.6612117532733991
aI236
aI65
aF0.24470501113986964
aF0.48471228403911504
aI52
asbag1
(g10
g3
Ntp972
Rp973
(dp974
g14
(lp975
I1
aI1
aF0.4727826450479209
aI64
aF0.09199731361590402
aI28
aI4
aF0.09303646731636173
aF0.06857959160292615
aI480
asbasg16
I4
sbI-50
tp976
a(g1
(g2
g3
Ntp977
Rp978
(dp979
g7
I128
sg8
(lp980
g1
(g10
g3
Ntp981
Rp982
(dp983
g14
(lp984
I128
aI2
aF0.10322045170316851
aI76
aF0.83939710965201
aI245
aI47
aF0.8029859976016915
aF0.6598281353375369
aI328
asbag1
(g10
g3
Ntp985
Rp986
(dp987
g14
(lp988
I2
aI2
aF0.21110823873936346
aI41
aF0.7438259090089577
aI139
aI74
aF0.40039358778048484
aF0.9789497023722152
aI489
asbag1
(g10
g3
Ntp989
Rp990
(dp991
g14
(lp992
I2
aI1
aF0.7784240743492932
aI35
aF0.7096734223730339
aI453
aI65
aF0.8911108602032927
aF0.8008132807588679
aI461
asbag1
(g10
g3
Ntp993
Rp994
(dp995
g14
(lp996
I1
aI1
aF0.5093005063170803
aI22
aF0.42015266999557244
aI286
aI4
aF0.17252846211761896
aF0.12010045366477196
aI273
asbasg16
I4
sbI-50
tp997
a(g1
(g2
g3
Ntp998
Rp999
(dp1000
g7
I128
sg8
(lp1001
g1
(g10
g3
Ntp1002
Rp1003
(dp1004
g14
(lp1005
I128
aI8
aF0.9984476342820899
aI79
aF0.582536068189627
aI171
aI82
aF0.28652351251848296
aF0.7626634559364137
aI497
asbag1
(g10
g3
Ntp1006
Rp1007
(dp1008
g14
(lp1009
I8
aI4
aF0.28839526941862104
aI32
aF0.9674220401471317
aI500
aI87
aF0.20669477520979151
aF0.49338608742399426
aI145
asbag1
(g10
g3
Ntp1010
Rp1011
(dp1012
g14
(lp1013
I4
aI1
aF0.26430228727252447
aI52
aF0.14139463424952348
aI43
aI56
aF0.8812300670407345
aF0.7325879077809195
aI459
asbag1
(g10
g3
Ntp1014
Rp1015
(dp1016
g14
(lp1017
I1
aI1
aF0.3703040769409499
aI51
aF0.504079505354904
aI121
aI4
aF0.24298630433183344
aF0.5853050494782098
aI126
asbasg16
I4
sbI-50
tp1018
a(g1
(g2
g3
Ntp1019
Rp1020
(dp1021
g7
I128
sg8
(lp1022
g1
(g10
g3
Ntp1023
Rp1024
(dp1025
g14
(lp1026
I128
aI16
aF0.8893753278953838
aI10
aF0.7181164169649908
aI253
aI60
aF0.8331178491789282
aF0.21357861914628407
aI105
asbag1
(g10
g3
Ntp1027
Rp1028
(dp1029
g14
(lp1030
I16
aI2
aF0.6449112003824647
aI93
aF0.6895649050394362
aI418
aI97
aF0.8226600330387633
aF0.3639451719930369
aI82
asbag1
(g10
g3
Ntp1031
Rp1032
(dp1033
g14
(lp1034
I2
aI2
aF0.1099935692083921
aI50
aF0.9665424946230833
aI478
aI41
aF0.9543291077832655
aF0.8743540584143834
aI494
asbag1
(g10
g3
Ntp1035
Rp1036
(dp1037
g14
(lp1038
I2
aI1
aF0.595058520936943
aI76
aF0.14359812015028295
aI443
aI75
aF0.9448212017990327
aF0.22377653343096304
aI349
asbag1
(g10
g3
Ntp1039
Rp1040
(dp1041
g14
(lp1042
I1
aI1
aF0.5804544232237816
aI44
aF0.4925870925121817
aI53
aI4
aF0.6881149111385054
aF0.09366505742570497
aI183
asbasg16
I4
sbI-50
tp1043
a(g1
(g2
g3
Ntp1044
Rp1045
(dp1046
g7
I128
sg8
(lp1047
g1
(g10
g3
Ntp1048
Rp1049
(dp1050
g14
(lp1051
I128
aI32
aF0.6276202964654255
aI44
aF0.7440227192159561
aI124
aI92
aF0.6592251697090005
aF0.9430085386282964
aI172
asbag1
(g10
g3
Ntp1052
Rp1053
(dp1054
g14
(lp1055
I32
aI16
aF0.7254864822909811
aI29
aF0.9220563799522526
aI233
aI57
aF0.8709376650744701
aF0.2861204745478222
aI114
asbag1
(g10
g3
Ntp1056
Rp1057
(dp1058
g14
(lp1059
I16
aI8
aF0.5559678934560135
aI71
aF0.9994028413312869
aI466
aI42
aF0.13409885960650214
aF0.5660523010750611
aI380
asbag1
(g10
g3
Ntp1060
Rp1061
(dp1062
g14
(lp1063
I8
aI8
aF0.708387793675555
aI29
aF0.9643733359808573
aI464
aI29
aF0.18568410415887882
aF0.1358841022757844
aI4
asbag1
(g10
g3
Ntp1064
Rp1065
(dp1066
g14
(lp1067
I8
aI1
aF0.8608297099537761
aI66
aF0.2627788923950235
aI71
aI23
aF0.4497671698109851
aF0.31535398278347193
aI104
asbag1
(g10
g3
Ntp1068
Rp1069
(dp1070
g14
(lp1071
I1
aI1
aF0.6400340101299785
aI77
aF0.6867556443398409
aI309
aI4
aF0.15477564178919734
aF0.06276421534459076
aI474
asbasg16
I4
sbI-50
tp1072
a(g1
(g2
g3
Ntp1073
Rp1074
(dp1075
g7
I128
sg8
(lp1076
g1
(g10
g3
Ntp1077
Rp1078
(dp1079
g14
(lp1080
I128
aI128
aF0.05746296180918664
aI84
aF0.42880760175775157
aI304
aI151
aF0.0496737610470126
aF0.7984985968574145
aI384
asbag1
(g10
g3
Ntp1081
Rp1082
(dp1083
g14
(lp1084
I128
aI128
aF0.2821114148118239
aI40
aF0.5832019436290635
aI120
aI193
aF0.5652777599610429
aF0.5476208852652169
aI238
asbag1
(g10
g3
Ntp1085
Rp1086
(dp1087
g14
(lp1088
I128
aI32
aF0.8313625066399619
aI10
aF0.21645115553811412
aI80
aI66
aF0.07809595345446063
aF0.07280854568949813
aI360
asbag1
(g10
g3
Ntp1089
Rp1090
(dp1091
g14
(lp1092
I32
aI1
aF0.38181859586545897
aI14
aF0.6133352213352699
aI47
aI70
aF0.4012615697415849
aF0.14820437621043692
aI366
asbag1
(g10
g3
Ntp1093
Rp1094
(dp1095
g14
(lp1096
I1
aI1
aF0.7871984924236262
aI82
aF0.7886852376634872
aI77
aI4
aF0.34600809206625527
aF0.3962704589330531
aI376
asbasg16
I4
sbI-50
tp1097
a(g1
(g2
g3
Ntp1098
Rp1099
(dp1100
g7
I128
sg8
(lp1101
g1
(g10
g3
Ntp1102
Rp1103
(dp1104
g14
(lp1105
I128
aI4
aF0.9159655640861055
aI66
aF0.7409989951780174
aI54
aI5
aF0.49166285722463954
aF0.8512692061346465
aI183
asbag1
(g10
g3
Ntp1106
Rp1107
(dp1108
g14
(lp1109
I4
aI1
aF0.22678888456385482
aI39
aF0.25481506326877446
aI445
aI16
aF0.6128841932141932
aF0.5285244802732408
aI387
asbag1
(g10
g3
Ntp1110
Rp1111
(dp1112
g14
(lp1113
I1
aI1
aF0.004518228759265219
aI78
aF0.9819003204027184
aI420
aI4
aF0.9033446867033468
aF0.9028547462052133
aI64
asbasg16
I4
sbg17
(g21
S'\xbf\x85l\xe1,\xa0\xfa\xbf'
p1114
tp1115
Rp1116
tp1117
a(g1
(g2
g3
Ntp1118
Rp1119
(dp1120
g7
I128
sg8
(lp1121
g1
(g10
g3
Ntp1122
Rp1123
(dp1124
g14
(lp1125
I128
aI2
aF0.9132701485873577
aI86
aF0.6154673282369223
aI209
aI13
aF0.21641094602155408
aF0.540609456202673
aI303
asbag1
(g10
g3
Ntp1126
Rp1127
(dp1128
g14
(lp1129
I2
aI1
aF0.3614639600420315
aI75
aF0.3373307475763323
aI347
aI42
aF0.1643356682403272
aF0.7374905504964421
aI308
asbag1
(g10
g3
Ntp1130
Rp1131
(dp1132
g14
(lp1133
I1
aI1
aF0.42363162752131434
aI74
aF0.5836210804837179
aI388
aI4
aF0.2014532277176161
aF0.5344019100043504
aI476
asbasg16
I4
sbg17
(g21
S'\xaa\xb96\xe2-b\xd5\xbf'
p1134
tp1135
Rp1136
tp1137
a(g1
(g2
g3
Ntp1138
Rp1139
(dp1140
g7
I128
sg8
(lp1141
g1
(g10
g3
Ntp1142
Rp1143
(dp1144
g14
(lp1145
I128
aI64
aF0.10844966160459313
aI90
aF0.7145512170023527
aI52
aI96
aF0.7609718063204273
aF0.49358269575800096
aI66
asbag1
(g10
g3
Ntp1146
Rp1147
(dp1148
g14
(lp1149
I64
aI2
aF0.5109051584055829
aI97
aF0.7111062981692443
aI17
aI81
aF0.05766858772361094
aF0.3852846309056378
aI197
asbag1
(g10
g3
Ntp1150
Rp1151
(dp1152
g14
(lp1153
I2
aI2
aF0.4688517864858712
aI79
aF0.8731197926932193
aI455
aI80
aF0.1176472397425109
aF0.9690864594480592
aI397
asbag1
(g10
g3
Ntp1154
Rp1155
(dp1156
g14
(lp1157
I2
aI1
aF0.7352893312510134
aI78
aF0.22724410605554524
aI121
aI38
aF0.09171722432868257
aF0.8442485889197269
aI347
asbag1
(g10
g3
Ntp1158
Rp1159
(dp1160
g14
(lp1161
I1
aI1
aF0.7949315375453573
aI82
aF0.3825934864579572
aI418
aI4
aF0.4347384392281205
aF0.9765725629261692
aI266
asbasg16
I4
sbI-50
tp1162
a(g1
(g2
g3
Ntp1163
Rp1164
(dp1165
g7
I128
sg8
(lp1166
g1
(g10
g3
Ntp1167
Rp1168
(dp1169
g14
(lp1170
I128
aI32
aF0.6153279208624918
aI34
aF0.7563110649475464
aI442
aI67
aF0.3865027482873571
aF0.9713143078423575
aI299
asbag1
(g10
g3
Ntp1171
Rp1172
(dp1173
g14
(lp1174
I32
aI2
aF0.3946243229028342
aI10
aF0.39800091991022646
aI434
aI11
aF0.2881401524626419
aF0.7943429341453719
aI449
asbag1
(g10
g3
Ntp1175
Rp1176
(dp1177
g14
(lp1178
I2
aI2
aF0.34870093361129806
aI37
aF0.4291320197432551
aI326
aI27
aF0.07000088067807564
aF0.949357450373224
aI491
asbag1
(g10
g3
Ntp1179
Rp1180
(dp1181
g14
(lp1182
I2
aI1
aF0.05561862135059081
aI99
aF0.5016270003766884
aI330
aI14
aF0.27133336875659375
aF0.48139115059311877
aI462
asbag1
(g10
g3
Ntp1183
Rp1184
(dp1185
g14
(lp1186
I1
aI1
aF0.8211946867638378
aI40
aF0.272925915246653
aI173
aI4
aF0.5721118766415324
aF0.19178247440334617
aI197
asbasg16
I4
sbI-50
tp1187
a(g1
(g2
g3
Ntp1188
Rp1189
(dp1190
g7
I128
sg8
(lp1191
g1
(g10
g3
Ntp1192
Rp1193
(dp1194
g14
(lp1195
I128
aI2
aF0.4129892497622204
aI36
aF0.07320909098390083
aI366
aI70
aF0.2749188062812097
aF0.9142422454254868
aI304
asbag1
(g10
g3
Ntp1196
Rp1197
(dp1198
g14
(lp1199
I2
aI1
aF0.394836528140721
aI43
aF0.7307748950843044
aI271
aI13
aF0.410681056913934
aF0.28726659174149527
aI248
asbag1
(g10
g3
Ntp1200
Rp1201
(dp1202
g14
(lp1203
I1
aI1
aF0.9413648643844661
aI72
aF0.9798746146908642
aI42
aI4
aF0.12790141767610075
aF0.7037603507946952
aI493
asbasg16
I4
sbI-50
tp1204
a(g1
(g2
g3
Ntp1205
Rp1206
(dp1207
g7
I128
sg8
(lp1208
g1
(g10
g3
Ntp1209
Rp1210
(dp1211
g14
(lp1212
I128
aI8
aF0.5135117902406664
aI57
aF0.8334761990349909
aI340
aI55
aF0.21098360075429823
aF0.9470368877237548
aI290
asbag1
(g10
g3
Ntp1213
Rp1214
(dp1215
g14
(lp1216
I8
aI4
aF0.5979444696736093
aI60
aF0.2053324065248009
aI77
aI31
aF0.13069021547574122
aF0.7325070345868425
aI56
asbag1
(g10
g3
Ntp1217
Rp1218
(dp1219
g14
(lp1220
I4
aI4
aF0.46729010096867585
aI96
aF0.9863695098314967
aI30
aI73
aF0.46147090244879163
aF0.5636991472411063
aI203
asbag1
(g10
g3
Ntp1221
Rp1222
(dp1223
g14
(lp1224
I4
aI1
aF0.3205922428210518
aI35
aF0.4870251995089969
aI402
aI68
aF0.07071894367635911
aF0.4960643548555449
aI477
asbag1
(g10
g3
Ntp1225
Rp1226
(dp1227
g14
(lp1228
I1
aI1
aF0.9600169687600397
aI11
aF0.6262150911119785
aI307
aI4
aF0.47546040499308284
aF0.2643232426739317
aI331
asbasg16
I4
sbI-50
tp1229
a(g1
(g2
g3
Ntp1230
Rp1231
(dp1232
g7
I128
sg8
(lp1233
g1
(g10
g3
Ntp1234
Rp1235
(dp1236
g14
(lp1237
I128
aI16
aF0.3929501585770847
aI85
aF0.1501956143312968
aI376
aI18
aF0.6695666494200565
aF0.6913274503901661
aI336
asbag1
(g10
g3
Ntp1238
Rp1239
(dp1240
g14
(lp1241
I16
aI2
aF0.08359605744754361
aI81
aF0.011948717094018901
aI74
aI35
aF0.8559935484146909
aF0.43880856717354755
aI55
asbag1
(g10
g3
Ntp1242
Rp1243
(dp1244
g14
(lp1245
I2
aI1
aF0.3846748315600743
aI30
aF0.2802715595439683
aI449
aI101
aF0.9064960700866233
aF0.9992687599298304
aI160
asbag1
(g10
g3
Ntp1246
Rp1247
(dp1248
g14
(lp1249
I1
aI1
aF0.6998496336777752
aI10
aF0.30361407289555986
aI354
aI4
aF0.5621444724006066
aF0.8783540720705757
aI113
asbasg16
I4
sbI-50
tp1250
a.