(lp0
(ccopy_reg
_reconstructor
p1
(cgenetic_algo
Genome
p2
c__builtin__
object
p3
Ntp4
Rp5
(dp6
S'input_size'
p7
I128
sS'genes'
p8
(lp9
g1
(cgenetic_algo
Gene
p10
g3
Ntp11
Rp12
(dp13
S'data'
p14
(lp15
I128
aI1
aF0.8712861295564422
aI60
aF0.06773923776479085
aI162
aI69
aF0.24939559273538123
aF0.41421967909108137
aI171
asbag1
(g10
g3
Ntp16
Rp17
(dp18
g14
(lp19
I1
aI1
aF0.28521502960244594
aI46
aF0.24555546857479238
aI22
aI20
aF0.27603318412901867
aF0.19838538659792482
aI250
asbasS'output_size'
p20
I20
sbcnumpy.core.multiarray
scalar
p21
(cnumpy
dtype
p22
(S'f8'
p23
I0
I1
tp24
Rp25
(I3
S'<'
p26
NNNI-1
I-1
I0
tp27
bS'8<)Y\xd3>\x05@'
p28
tp29
Rp30
tp31
a(g1
(g2
g3
Ntp32
Rp33
(dp34
g7
I128
sg8
(lp35
g1
(g10
g3
Ntp36
Rp37
(dp38
g14
(lp39
I128
aI1
aF0.5351114791454439
aI59
aF0.1367808284070383
aI246
aI61
aF0.5598538170995889
aF0.5490383625331756
aI298
asbag1
(g10
g3
Ntp40
Rp41
(dp42
g14
(lp43
I1
aI1
aF0.5832480808027836
aI99
aF0.03497737472671625
aI331
aI20
aF0.6921642727371359
aF0.2144316123119726
aI247
asbasg20
I20
sbg21
(g25
S'w\xf7\xb2A\xec\x9d\xf0?'
p44
tp45
Rp46
tp47
a(g1
(g2
g3
Ntp48
Rp49
(dp50
g7
I128
sg8
(lp51
g1
(g10
g3
Ntp52
Rp53
(dp54
g14
(lp55
I128
aI1
aF0.36333074929774195
aI67
aF0.12825832695226697
aI244
aI50
aF0.5533886951276749
aF0.6445661727674737
aI225
asbag1
(g10
g3
Ntp56
Rp57
(dp58
g14
(lp59
I1
aI1
aF0.5832480808027836
aI99
aF0.03497737472671625
aI331
aI20
aF0.6921642727371359
aF0.2144316123119726
aI247
asbasg20
I20
sbg21
(g25
S'F\x90`_\x02\xba\xd0?'
p60
tp61
Rp62
tp63
a(g1
(g2
g3
Ntp64
Rp65
(dp66
g7
I128
sg8
(lp67
g1
(g10
g3
Ntp68
Rp69
(dp70
g14
(lp71
I128
aI1
aF0.36333074929774195
aI67
aF0.12825832695226697
aI244
aI50
aF0.5533886951276749
aF0.6445661727674737
aI225
asbag1
(g10
g3
Ntp72
Rp73
(dp74
g14
(lp75
I1
aI1
aF0.5832480808027836
aI89
aF0.1467102695915098
aI481
aI20
aF0.4563616136937242
aF0.2144316123119726
aI247
asbasg20
I20
sbg21
(g25
S'\xc7=\xae\xb8\x84\x01\xfe?'
p76
tp77
Rp78
tp79
a(g1
(g2
g3
Ntp80
Rp81
(dp82
g7
I128
sg8
(lp83
g1
(g10
g3
Ntp84
Rp85
(dp86
g14
(lp87
I128
aI1
aF0.9351853372777904
aI66
aF0.19848324539747975
aI220
aI56
aF0.26888962976471964
aF0.33388041057201795
aI166
asbag1
(g10
g3
Ntp88
Rp89
(dp90
g14
(lp91
I1
aI1
aF0.28521502960244594
aI46
aF0.24555546857479238
aI22
aI20
aF0.27603318412901867
aF0.19838538659792482
aI250
asbasg20
I20
sbg21
(g25
S'\xe8\xc6\xe9d\xb4\x0b\xf0?'
p92
tp93
Rp94
tp95
a(g1
(g2
g3
Ntp96
Rp97
(dp98
g7
I128
sg8
(lp99
g1
(g10
g3
Ntp100
Rp101
(dp102
g14
(lp103
I128
aI1
aF0.9351853372777904
aI66
aF0.19848324539747975
aI220
aI56
aF0.26888962976471964
aF0.33388041057201795
aI166
asbag1
(g10
g3
Ntp104
Rp105
(dp106
g14
(lp107
I1
aI1
aF0.35384957328314914
aI54
aF0.408725182191919
aI497
aI20
aF0.011780174966323997
aF0.6657620593328359
aI218
asbasg20
I20
sbg21
(g25
S'C\xaa\x94\x91l\xb0\xf0\xbf'
p108
tp109
Rp110
tp111
a(g1
(g2
g3
Ntp112
Rp113
(dp114
g7
I128
sg8
(lp115
g1
(g10
g3
Ntp116
Rp117
(dp118
g14
(lp119
I128
aI1
aF0.41752959970679593
aI53
aF0.3203119507793498
aI128
aI51
aF0.3452379098293626
aF0.5653324052051379
aI163
asbag1
(g10
g3
Ntp120
Rp121
(dp122
g14
(lp123
I1
aI1
aF0.17617367076297138
aI77
aF0.23256512843684296
aI294
aI26
aF0.5721960992032502
aF0.6157826230850167
aI138
asbag1
(g10
g3
Ntp124
Rp125
(dp126
g14
(lp127
I1
aI1
aF0.5832480808027836
aI21
aF0.1467102695915098
aI331
aI20
aF0.4563616136937242
aF0.2144316123119726
aI247
asbasg20
I20
sbg21
(g25
S'\xce\xc4\xfe\xe9V\x94\xe7?'
p128
tp129
Rp130
tp131
a(g1
(g2
g3
Ntp132
Rp133
(dp134
g7
I128
sg8
(lp135
g1
(g10
g3
Ntp136
Rp137
(dp138
g14
(lp139
I128
aI1
aF0.5434472273618622
aI33
aF0.2071718123638402
aI34
aI83
aF0.11097673150724685
aF0.6656092899960563
aI81
asbag1
(g10
g3
Ntp140
Rp141
(dp142
g14
(lp143
I1
aI1
aF0.17617367076297138
aI77
aF0.23256512843684296
aI294
aI26
aF0.5721960992032502
aF0.6157826230850167
aI138
asbag1
(g10
g3
Ntp144
Rp145
(dp146
g14
(lp147
I1
aI1
aF0.4374300264272566
aI47
aF0.2900811793931846
aI276
aI20
aF0.5179303509226012
aF0.3397435663630961
aI246
asbasg20
I20
sbg21
(g25
S'2F\xce\x17T\x1a\xf4?'
p148
tp149
Rp150
tp151
a(g1
(g2
g3
Ntp152
Rp153
(dp154
g7
I128
sg8
(lp155
g1
(g10
g3
Ntp156
Rp157
(dp158
g14
(lp159
I128
aI1
aF0.5632786622290469
aI65
aF0.28454094463420243
aI57
aI63
aF0.33638722609804084
aF0.805232479032596
aI135
asbag1
(g10
g3
Ntp160
Rp161
(dp162
g14
(lp163
I1
aI1
aF0.8304473753897845
aI27
aF0.5708155789984594
aI173
aI20
aF0.7018014874074627
aF0.8809599109931074
aI453
asbasg20
I20
sbg21
(g25
S'{\x9a\x90\x03\x85n\xe4?'
p164
tp165
Rp166
tp167
a(g1
(g2
g3
Ntp168
Rp169
(dp170
g7
I128
sg8
(lp171
g1
(g10
g3
Ntp172
Rp173
(dp174
g14
(lp175
I128
aI1
aF0.5632786622290469
aI65
aF0.28454094463420243
aI57
aI63
aF0.33638722609804084
aF0.805232479032596
aI135
asbag1
(g10
g3
Ntp176
Rp177
(dp178
g14
(lp179
I1
aI1
aF0.5340934199167015
aI67
aF0.4738437397057088
aI53
aI20
aF0.8420645108775274
aF0.9318024449477527
aI482
asbasg20
I20
sbg21
(g25
S'\x1c\xe5\xe0\xaa|/\xf4?'
p180
tp181
Rp182
tp183
a(g1
(g2
g3
Ntp184
Rp185
(dp186
g7
I128
sg8
(lp187
g1
(g10
g3
Ntp188
Rp189
(dp190
g14
(lp191
I128
aI1
aF0.42510314936941523
aI56
aF0.3854099529752937
aI130
aI20
aF0.35419576103375505
aF0.5666176028988144
aI171
asbasg20
I20
sbg21
(g25
S'\x88o\xf48b\r\xf8?'
p192
tp193
Rp194
tp195
a(g1
(g2
g3
Ntp196
Rp197
(dp198
g7
I128
sg8
(lp199
g1
(g10
g3
Ntp200
Rp201
(dp202
g14
(lp203
I128
aI1
aF0.42510314936941523
aI56
aF0.3854099529752937
aI130
aI20
aF0.35419576103375505
aF0.5666176028988144
aI171
asbasg20
I20
sbg21
(g25
S'h\x05\xc2`ro\xf3?'
p204
tp205
Rp206
tp207
a(g1
(g2
g3
Ntp208
Rp209
(dp210
g7
I128
sg8
(lp211
g1
(g10
g3
Ntp212
Rp213
(dp214
g14
(lp215
I128
aI1
aF0.13441796236644216
aI78
aF0.3330371280667518
aI288
aI36
aF0.6473400345464134
aF0.3108066342149072
aI187
asbag1
(g10
g3
Ntp216
Rp217
(dp218
g14
(lp219
I1
aI1
aF0.5225316778327653
aI42
aF0.0942815349104307
aI313
aI20
aF0.8727305883625027
aF0.21427383844344128
aI164
asbasg20
I20
sbg21
(g25
S'\x00X\x07/!\xb3\xf5?'
p220
tp221
Rp222
tp223
a(g1
(g2
g3
Ntp224
Rp225
(dp226
g7
I128
sg8
(lp227
g1
(g10
g3
Ntp228
Rp229
(dp230
g14
(lp231
I128
aI1
aF0.028699472381449986
aI94
aF0.2169451230466718
aI421
aI54
aF0.35287273962395194
aF0.4464043466944304
aI75
asbag1
(g10
g3
Ntp232
Rp233
(dp234
g14
(lp235
I1
aI1
aF0.3813340650920998
aI52
aF0.2717053339986312
aI234
aI19
aF0.9072689589156888
aF0.1947413800894126
aI232
asbag1
(g10
g3
Ntp236
Rp237
(dp238
g14
(lp239
I1
aI1
aF0.42353968859914726
aI67
aF0.6556062510082312
aI112
aI20
aF0.8420645108775274
aF0.9318024449477527
aI57
asbasg20
I20
sbg21
(g25
S'\xee\xben\x1a\x94\x0b\x02@'
p240
tp241
Rp242
tp243
a(g1
(g2
g3
Ntp244
Rp245
(dp246
g7
I128
sg8
(lp247
g1
(g10
g3
Ntp248
Rp249
(dp250
g14
(lp251
I128
aI1
aF0.8483540325880123
aI39
aF0.0643511764543368
aI236
aI84
aF0.9455902310591555
aF0.5822176924352963
aI279
asbag1
(g10
g3
Ntp252
Rp253
(dp254
g14
(lp255
I1
aI1
aF0.3606859992024152
aI68
aF0.42628515281409524
aI409
aI13
aF0.4829779859901978
aF0.46286481476866803
aI321
asbag1
(g10
g3
Ntp256
Rp257
(dp258
g14
(lp259
I1
aI1
aF0.4459224806450788
aI56
aF0.4782868188325976
aI312
aI44
aF0.661546598211666
aF0.8523320496088754
aI320
asbag1
(g10
g3
Ntp260
Rp261
(dp262
g14
(lp263
I1
aI1
aF0.06688949703084213
aI31
aF0.636678610017396
aI255
aI20
aF0.724296256417758
aF0.4993242141525328
aI185
asbasg20
I20
sbg21
(g25
S'\xcc\xa9\x99u\x9d\x05\xfd?'
p264
tp265
Rp266
tp267
a(g1
(g2
g3
Ntp268
Rp269
(dp270
g7
I128
sg8
(lp271
g1
(g10
g3
Ntp272
Rp273
(dp274
g14
(lp275
I128
aI1
aF0.7274017371595565
aI61
aF0.11114554870014198
aI196
aI69
aF0.4676545610811351
aF0.8160368523060415
aI307
asbag1
(g10
g3
Ntp276
Rp277
(dp278
g14
(lp279
I1
aI1
aF0.45762176480942723
aI35
aF0.3505148932358664
aI245
aI52
aF0.8349432437384567
aF0.5407709532939146
aI232
asbag1
(g10
g3
Ntp280
Rp281
(dp282
g14
(lp283
I1
aI1
aF0.3606859992024152
aI68
aF0.42628515281409524
aI409
aI13
aF0.4829779859901978
aF0.46286481476866803
aI321
asbag1
(g10
g3
Ntp284
Rp285
(dp286
g14
(lp287
I1
aI1
aF0.16444322413060108
aI51
aF0.8454280889650533
aI429
aI20
aF0.8554386353421969
aF0.8886272469117094
aI333
asbasg20
I20
sbg21
(g25
S'\x13\x7f\x8eG\xf4\x0c\xd5\xbf'
p288
tp289
Rp290
tp291
a(g1
(g2
g3
Ntp292
Rp293
(dp294
g7
I128
sg8
(lp295
g1
(g10
g3
Ntp296
Rp297
(dp298
g14
(lp299
I128
aI1
aF0.4456382155584232
aI47
aF0.15256183954449432
aI437
aI52
aF0.4363477361607579
aF0.5671771904734154
aI144
asbag1
(g10
g3
Ntp300
Rp301
(dp302
g14
(lp303
I1
aI1
aF0.6857270748639581
aI72
aF0.252015038503669
aI382
aI20
aF0.36902783495667857
aF0.07412918687563752
aI189
asbasg20
I20
sbg21
(g25
S'W\xda\xab\x07\xf3\xd3\xf0\xbf'
p304
tp305
Rp306
tp307
a(g1
(g2
g3
Ntp308
Rp309
(dp310
g7
I128
sg8
(lp311
g1
(g10
g3
Ntp312
Rp313
(dp314
g14
(lp315
I128
aI1
aF0.4456382155584232
aI47
aF0.15256183954449432
aI437
aI20
aF0.4363477361607579
aF0.5671771904734154
aI144
asbasg20
I20
sbg21
(g25
S'\x84\x97z\x88\xf8\x81\xf9?'
p316
tp317
Rp318
tp319
a(g1
(g2
g3
Ntp320
Rp321
(dp322
g7
I128
sg8
(lp323
g1
(g10
g3
Ntp324
Rp325
(dp326
g14
(lp327
I128
aI1
aF0.2631869248672053
aI54
aF0.32398249182159317
aI288
aI34
aF0.5242227511020643
aF0.5056241639281542
aI328
asbag1
(g10
g3
Ntp328
Rp329
(dp330
g14
(lp331
I1
aI1
aF0.626884341652411
aI32
aF0.5110923495179196
aI253
aI28
aF0.5910582340846453
aF0.6738383672035559
aI315
asbag1
(g10
g3
Ntp332
Rp333
(dp334
g14
(lp335
I1
aI1
aF0.7206507084770646
aI27
aF0.16057718016839662
aI180
aI20
aF0.8669971158916426
aF0.5313497005010174
aI319
asbasg20
I20
sbg21
(g25
S'R\x14\xee\xd4\xba\xbc\xdc\xbf'
p336
tp337
Rp338
tp339
a(g1
(g2
g3
Ntp340
Rp341
(dp342
g7
I128
sg8
(lp343
g1
(g10
g3
Ntp344
Rp345
(dp346
g14
(lp347
I128
aI1
aF0.6128279694588792
aI38
aF0.2715794245833537
aI256
aI36
aF0.37078955898536536
aF0.39583086687496605
aI236
asbag1
(g10
g3
Ntp348
Rp349
(dp350
g14
(lp351
I1
aI1
aF0.49191881667213494
aI40
aF0.2422798359949949
aI234
aI27
aF0.6956099334968535
aF0.5184869322145857
aI323
asbag1
(g10
g3
Ntp352
Rp353
(dp354
g14
(lp355
I1
aI1
aF0.6409407138459428
aI27
aF0.7506052744524855
aI250
aI20
aF0.8113269091839252
aF0.951845867532146
aI394
asbasg20
I20
sbg21
(g25
S'x\xbdJ\xb0j2\xd3\xbf'
p356
tp357
Rp358
tp359
a(g1
(g2
g3
Ntp360
Rp361
(dp362
g7
I128
sg8
(lp363
g1
(g10
g3
Ntp364
Rp365
(dp366
g14
(lp367
I128
aI1
aF0.7202377895569156
aI55
aF0.19824372169153592
aI114
aI36
aF0.034351977879306994
aF0.47185883916107885
aI189
asbag1
(g10
g3
Ntp368
Rp369
(dp370
g14
(lp371
I1
aI1
aF0.7470062501167446
aI30
aF0.3889936956811498
aI103
aI51
aF0.4063891094573548
aF0.6033452526357594
aI267
asbag1
(g10
g3
Ntp372
Rp373
(dp374
g14
(lp375
I1
aI1
aF0.31576936558669433
aI82
aF0.2864142401362073
aI153
aI37
aF0.7434791032794839
aF0.8780541897021708
aI464
asbag1
(g10
g3
Ntp376
Rp377
(dp378
g14
(lp379
I1
aI1
aF0.5895167059606135
aI59
aF0.6350649321639896
aI427
aI39
aF0.6032664721525156
aF0.2657518161337393
aI378
asbag1
(g10
g3
Ntp380
Rp381
(dp382
g14
(lp383
I1
aI1
aF0.7635641493503341
aI21
aF0.7731220629522015
aI86
aI20
aF0.718715935553886
aF0.8980060125313886
aI459
asbasg20
I20
sbg21
(g25
S'@\xce\xcd\x93\xcc4\xe6?'
p384
tp385
Rp386
tp387
a(g1
(g2
g3
Ntp388
Rp389
(dp390
g7
I128
sg8
(lp391
g1
(g10
g3
Ntp392
Rp393
(dp394
g14
(lp395
I128
aI1
aF0.2079990425742414
aI97
aF0.09898474056670581
aI254
aI55
aF0.6448936956814402
aF0.8243059344565888
aI446
asbag1
(g10
g3
Ntp396
Rp397
(dp398
g14
(lp399
I1
aI1
aF0.5895167059606135
aI59
aF0.6350649321639896
aI427
aI39
aF0.6032664721525156
aF0.2657518161337393
aI378
asbag1
(g10
g3
Ntp400
Rp401
(dp402
g14
(lp403
I1
aI1
aF0.7419009694536249
aI38
aF0.48568289232186873
aI100
aI28
aF0.3765339567165965
aF0.6849324258462337
aI324
asbag1
(g10
g3
Ntp404
Rp405
(dp406
g14
(lp407
I1
aI1
aF0.7470062501167446
aI30
aF0.3889936956811498
aI103
aI51
aF0.4063891094573548
aF0.6033452526357594
aI267
asbag1
(g10
g3
Ntp408
Rp409
(dp410
g14
(lp411
I1
aI1
aF0.42353968859914726
aI67
aF0.4738437397057088
aI53
aI20
aF0.8420645108775274
aF0.9318024449477527
aI482
asbasg20
I20
sbg21
(g25
S'\x9c@\xddA=\xab\xf2?'
p412
tp413
Rp414
tp415
a(g1
(g2
g3
Ntp416
Rp417
(dp418
g7
I128
sg8
(lp419
g1
(g10
g3
Ntp420
Rp421
(dp422
g14
(lp423
I128
aI1
aF0.8536950639574432
aI48
aF0.06913325935680634
aI317
aI79
aF0.6952553437500903
aF0.7092286437615243
aI386
asbag1
(g10
g3
Ntp424
Rp425
(dp426
g14
(lp427
I1
aI1
aF0.672287555642911
aI71
aF0.59909504395955
aI490
aI20
aF0.3263092577460974
aF0.6555111190952826
aI379
asbasg20
I20
sbg21
(g25
S'$\x96\x9dH5\xc2\xf2?'
p428
tp429
Rp430
tp431
a(g1
(g2
g3
Ntp432
Rp433
(dp434
g7
I128
sg8
(lp435
g1
(g10
g3
Ntp436
Rp437
(dp438
g14
(lp439
I128
aI1
aF0.8536950639574432
aI48
aF0.06913325935680634
aI317
aI79
aF0.6952553437500903
aF0.7092286437615243
aI386
asbag1
(g10
g3
Ntp440
Rp441
(dp442
g14
(lp443
I1
aI1
aF0.3606859992024152
aI68
aF0.42628515281409524
aI409
aI13
aF0.4829779859901978
aF0.46286481476866803
aI321
asbag1
(g10
g3
Ntp444
Rp445
(dp446
g14
(lp447
I1
aI1
aF0.3352346389727008
aI46
aF0.5546197068201503
aI338
aI20
aF0.6151291371255017
aF0.6543405546788086
aI244
asbasg20
I20
sbg21
(g25
S'*\xb5\xb9\xfe\xd1\xef\xcc\xbf'
p448
tp449
Rp450
tp451
a(g1
(g2
g3
Ntp452
Rp453
(dp454
g7
I128
sg8
(lp455
g1
(g10
g3
Ntp456
Rp457
(dp458
g14
(lp459
I128
aI1
aF0.8550854701006436
aI36
aF0.1133259023541423
aI327
aI96
aF0.648637417040991
aF0.7369158684454353
aI411
asbag1
(g10
g3
Ntp460
Rp461
(dp462
g14
(lp463
I1
aI1
aF0.3904892239009935
aI39
aF0.46562067723640793
aI271
aI19
aF0.5315077302562242
aF0.3324842816067389
aI354
asbag1
(g10
g3
Ntp464
Rp465
(dp466
g14
(lp467
I1
aI1
aF0.3253263028910396
aI19
aF0.9480286615235427
aI238
aI20
aF0.47451039950099694
aF0.37674321642408604
aI23
asbasg20
I20
sbg21
(g25
S'j7sk\xd5\x18\x00@'
p468
tp469
Rp470
tp471
a(g1
(g2
g3
Ntp472
Rp473
(dp474
g7
I128
sg8
(lp475
g1
(g10
g3
Ntp476
Rp477
(dp478
g14
(lp479
I128
aI1
aF0.7656577086442339
aI40
aF0.07408484612913258
aI269
aI83
aF0.7492353592484848
aF0.6640056463604067
aI333
asbag1
(g10
g3
Ntp480
Rp481
(dp482
g14
(lp483
I1
aI1
aF0.19803213377342732
aI30
aF0.22616182497864767
aI345
aI20
aF0.6913557138050452
aF0.41404833301957733
aI461
asbasg20
I20
sbg21
(g25
S'.$3\xd6\x90\x88\xf6?'
p484
tp485
Rp486
tp487
a(g1
(g2
g3
Ntp488
Rp489
(dp490
g7
I128
sg8
(lp491
g1
(g10
g3
Ntp492
Rp493
(dp494
g14
(lp495
I128
aI1
aF0.21375436709138307
aI46
aF0.12450084892492519
aI402
aI48
aF0.7704219243441
aF0.5938419191829664
aI350
asbag1
(g10
g3
Ntp496
Rp497
(dp498
g14
(lp499
I1
aI1
aF0.5101136628031737
aI38
aF0.4221032584746067
aI123
aI51
aF0.3278259875146119
aF0.6751177140494002
aI215
asbag1
(g10
g3
Ntp500
Rp501
(dp502
g14
(lp503
I1
aI1
aF0.42353968859914726
aI67
aF0.4738437397057088
aI53
aI20
aF0.8420645108775274
aF0.9318024449477527
aI482
asbasg20
I20
sbg21
(g25
S'l\xc4\x08\x05x\xb1\xfe?'
p504
tp505
Rp506
tp507
a(g1
(g2
g3
Ntp508
Rp509
(dp510
g7
I128
sg8
(lp511
g1
(g10
g3
Ntp512
Rp513
(dp514
g14
(lp515
I128
aI1
aF0.37860079722662265
aI39
aF0.1658363306443827
aI218
aI65
aF0.4406993279256734
aF0.6297256045895113
aI215
asbag1
(g10
g3
Ntp516
Rp517
(dp518
g14
(lp519
I1
aI1
aF0.4767800982444851
aI44
aF0.6370347045853733
aI212
aI20
aF0.5446752435219769
aF0.6846261381027441
aI350
asbasg20
I20
sbg21
(g25
S'\xb28\xcd\x1d\x17\xd9\x02@'
p520
tp521
Rp522
tp523
a(g1
(g2
g3
Ntp524
Rp525
(dp526
g7
I128
sg8
(lp527
g1
(g10
g3
Ntp528
Rp529
(dp530
g14
(lp531
I128
aI1
aF0.3082183069301659
aI60
aF0.30280010402624213
aI281
aI20
aF0.4877917404155984
aF0.7302807840420775
aI295
asbasg20
I20
sbg21
(g25
S'E\xf2:\x05S5\xff?'
p532
tp533
Rp534
tp535
a(g1
(g2
g3
Ntp536
Rp537
(dp538
g7
I128
sg8
(lp539
g1
(g10
g3
Ntp540
Rp541
(dp542
g14
(lp543
I128
aI1
aF0.4740144310531904
aI59
aF0.17859949360416205
aI234
aI20
aF0.6468339713718343
aF0.8176158102361581
aI332
asbasg20
I20
sbg21
(g25
S'P\xa9g\xa2\xfa\xa8\xff?'
p544
tp545
Rp546
tp547
a(g1
(g2
g3
Ntp548
Rp549
(dp550
g7
I128
sg8
(lp551
g1
(g10
g3
Ntp552
Rp553
(dp554
g14
(lp555
I128
aI1
aF0.47153368422984465
aI63
aF0.21513765579958566
aI234
aI20
aF0.6483749094222145
aF0.3860635641543828
aI226
asbasg20
I20
sbg21
(g25
S'\x95\xd4\x80\xa7\xb2\xe9\xf1?'
p556
tp557
Rp558
tp559
a(g1
(g2
g3
Ntp560
Rp561
(dp562
g7
I128
sg8
(lp563
g1
(g10
g3
Ntp564
Rp565
(dp566
g14
(lp567
I128
aI1
aF0.47153368422984465
aI63
aF0.21513765579958566
aI234
aI33
aF0.6483749094222145
aF0.3860635641543828
aI226
asbag1
(g10
g3
Ntp568
Rp569
(dp570
g14
(lp571
I1
aI1
aF0.36525922677075495
aI91
aF0.22616182497864767
aI345
aI20
aF0.5852820033259224
aF0.41404833301957733
aI461
asbasg20
I20
sbg21
(g25
S't\x1f\xb6\xb5\xc6\xca\x00@'
p572
tp573
Rp574
tp575
a(g1
(g2
g3
Ntp576
Rp577
(dp578
g7
I128
sg8
(lp579
g1
(g10
g3
Ntp580
Rp581
(dp582
g14
(lp583
I128
aI1
aF0.31150321539048864
aI55
aF0.2900237360941432
aI167
aI20
aF0.4325985923301687
aF0.4789196552980337
aI287
asbasg20
I20
sbg21
(g25
S'V\xdb\x8e\x0f\xfa\x1f\xfb?'
p584
tp585
Rp586
tp587
a(g1
(g2
g3
Ntp588
Rp589
(dp590
g7
I128
sg8
(lp591
g1
(g10
g3
Ntp592
Rp593
(dp594
g14
(lp595
I128
aI1
aF0.31150321539048864
aI55
aF0.2900237360941432
aI167
aI20
aF0.4325985923301687
aF0.4789196552980337
aI287
asbasg20
I20
sbg21
(g25
S'\x11\x91\xc9\xff\xc9\xef\xfe?'
p596
tp597
Rp598
tp599
a(g1
(g2
g3
Ntp600
Rp601
(dp602
g7
I128
sg8
(lp603
g1
(g10
g3
Ntp604
Rp605
(dp606
g14
(lp607
I128
aI1
aF0.23395257276329526
aI70
aF0.31036496052136403
aI249
aI19
aF0.17890214984522437
aF0.5490295037216338
aI384
asbag1
(g10
g3
Ntp608
Rp609
(dp610
g14
(lp611
I1
aI1
aF0.6250553276692803
aI55
aF0.5406866978611975
aI407
aI47
aF0.48354316083662197
aF0.7510008272102942
aI119
asbag1
(g10
g3
Ntp612
Rp613
(dp614
g14
(lp615
I1
aI1
aF0.5275545199686935
aI64
aF0.40134294245177315
aI436
aI20
aF0.3874949093042809
aF0.5337752339651729
aI338
asbasg20
I20
sbg21
(g25
S'\xae\xf6\x10\x86\xb6\xb7\xef\xbf'
p616
tp617
Rp618
tp619
a(g1
(g2
g3
Ntp620
Rp621
(dp622
g7
I128
sg8
(lp623
g1
(g10
g3
Ntp624
Rp625
(dp626
g14
(lp627
I128
aI1
aF0.3083870285288856
aI63
aF0.3540145083049424
aI316
aI19
aF0.3137913553538444
aF0.4805344262783486
aI341
asbag1
(g10
g3
Ntp628
Rp629
(dp630
g14
(lp631
I1
aI1
aF0.6250553276692803
aI55
aF0.5406866978611975
aI407
aI47
aF0.48354316083662197
aF0.7510008272102942
aI119
asbag1
(g10
g3
Ntp632
Rp633
(dp634
g14
(lp635
I1
aI1
aF0.672287555642911
aI72
aF0.4050218288150256
aI490
aI20
aF0.3263092577460974
aF0.6555111190952826
aI379
asbasg20
I20
sbg21
(g25
S'\x8e\x0fV\xde\x9e\xd3\xde?'
p636
tp637
Rp638
tp639
a(g1
(g2
g3
Ntp640
Rp641
(dp642
g7
I128
sg8
(lp643
g1
(g10
g3
Ntp644
Rp645
(dp646
g14
(lp647
I128
aI1
aF0.3118575525857291
aI54
aF0.24737887967203737
aI284
aI32
aF0.30316861198754724
aF0.2635671021838176
aI247
asbag1
(g10
g3
Ntp648
Rp649
(dp650
g14
(lp651
I1
aI1
aF0.8389403502703766
aI66
aF0.43860900512286044
aI69
aI20
aF0.44097822599776487
aF0.7516793813837488
aI265
asbasg20
I20
sbg21
(g25
S'\x82Ix)\xcd\\\xf5?'
p652
tp653
Rp654
tp655
a(g1
(g2
g3
Ntp656
Rp657
(dp658
g7
I128
sg8
(lp659
g1
(g10
g3
Ntp660
Rp661
(dp662
g14
(lp663
I128
aI2
aF0.2630867880253316
aI51
aF0.2952352475311202
aI250
aI20
aF0.5891547991173043
aF0.9879035020220209
aI290
asbag1
(g10
g3
Ntp664
Rp665
(dp666
g14
(lp667
I2
aI1
aF0.6038613511396245
aI70
aF0.3912086288132238
aI174
aI26
aF0.3283465935792218
aF0.48681375612202993
aI302
asbag1
(g10
g3
Ntp668
Rp669
(dp670
g14
(lp671
I1
aI1
aF0.7820155508472335
aI47
aF0.34217963229131054
aI74
aI20
aF0.5284318768246334
aF0.7932983527072552
aI173
asbasg20
I20
sbg21
(g25
S'\x9a\xdc\xe9\xf3\x88_\xe2\xbf'
p672
tp673
Rp674
tp675
a(g1
(g2
g3
Ntp676
Rp677
(dp678
g7
I128
sg8
(lp679
g1
(g10
g3
Ntp680
Rp681
(dp682
g14
(lp683
I128
aI1
aF0.33899181053012645
aI63
aF0.24221093842480612
aI242
aI33
aF0.6006661115126504
aF0.4803560755834327
aI287
asbag1
(g10
g3
Ntp684
Rp685
(dp686
g14
(lp687
I1
aI1
aF0.41611036229740483
aI58
aF0.4911198435758505
aI309
aI20
aF0.20550407404824056
aF0.829027398333049
aI155
asbasg20
I20
sbg21
(g25
S'\xe2\xf6\xe2\nv\x16\xf8?'
p688
tp689
Rp690
tp691
a(g1
(g2
g3
Ntp692
Rp693
(dp694
g7
I128
sg8
(lp695
g1
(g10
g3
Ntp696
Rp697
(dp698
g14
(lp699
I128
aI1
aF0.33899181053012645
aI63
aF0.24221093842480612
aI242
aI33
aF0.6006661115126504
aF0.4803560755834327
aI287
asbag1
(g10
g3
Ntp700
Rp701
(dp702
g14
(lp703
I1
aI1
aF0.571331381014901
aI75
aF0.12003688272854496
aI287
aI34
aF0.7133411834792718
aF0.3525286054386543
aI336
asbag1
(g10
g3
Ntp704
Rp705
(dp706
g14
(lp707
I1
aI1
aF0.36525922677075495
aI91
aF0.22616182497864767
aI345
aI20
aF0.5852820033259224
aF0.41404833301957733
aI461
asbasg20
I20
sbg21
(g25
S'\x91X\x11\x8c5F\xf4?'
p708
tp709
Rp710
tp711
a(g1
(g2
g3
Ntp712
Rp713
(dp714
g7
I128
sg8
(lp715
g1
(g10
g3
Ntp716
Rp717
(dp718
g14
(lp719
I128
aI1
aF0.4290829602114079
aI62
aF0.28194003610263674
aI102
aI51
aF0.37578612722412763
aF0.6172756196582555
aI178
asbag1
(g10
g3
Ntp720
Rp721
(dp722
g14
(lp723
I1
aI1
aF0.43859675443049245
aI36
aF0.5072110881689403
aI308
aI42
aF0.8707680896965757
aF0.531325966327764
aI345
asbag1
(g10
g3
Ntp724
Rp725
(dp726
g14
(lp727
I1
aI1
aF0.5193401193575653
aI79
aF0.727162092297269
aI281
aI20
aF0.3864601626028644
aF0.854568073542438
aI479
asbasg20
I20
sbg21
(g25
S']yH\xeaD\xd3\xe3\xbf'
p728
tp729
Rp730
tp731
a(g1
(g2
g3
Ntp732
Rp733
(dp734
g7
I128
sg8
(lp735
g1
(g10
g3
Ntp736
Rp737
(dp738
g14
(lp739
I128
aI1
aF0.38219830584039804
aI69
aF0.2724553798944487
aI46
aI83
aF0.39241130939074254
aF0.7052377447910385
aI167
asbag1
(g10
g3
Ntp740
Rp741
(dp742
g14
(lp743
I1
aI1
aF0.4572821845064551
aI46
aF0.3993178902398825
aI233
aI20
aF0.6149645173770442
aF0.5303197304266183
aI267
asbasg20
I20
sbg21
(g25
S'\xb5\xbb\xb2\xbc\x96\xf6\xda?'
p744
tp745
Rp746
tp747
a(g1
(g2
g3
Ntp748
Rp749
(dp750
g7
I128
sg8
(lp751
g1
(g10
g3
Ntp752
Rp753
(dp754
g14
(lp755
I128
aI1
aF0.10846889957286357
aI69
aF0.10157981683757644
aI194
aI14
aF0.5284290976942815
aF0.3625913739609829
aI195
asbag1
(g10
g3
Ntp756
Rp757
(dp758
g14
(lp759
I1
aI1
aF0.3744510177805483
aI69
aF0.32446305583602575
aI185
aI20
aF0.255007683483878
aF0.5227184343552265
aI225
asbasg20
I20
sbg21
(g25
S'\xd7{\xcd\x8b\xe9\x0b\x02@'
p760
tp761
Rp762
tp763
a(g1
(g2
g3
Ntp764
Rp765
(dp766
g7
I128
sg8
(lp767
g1
(g10
g3
Ntp768
Rp769
(dp770
g14
(lp771
I128
aI1
aF0.22063028641827764
aI75
aF0.1296930424668887
aI128
aI17
aF0.41647019530689844
aF0.28950042216919336
aI245
asbag1
(g10
g3
Ntp772
Rp773
(dp774
g14
(lp775
I1
aI1
aF0.41611036229740483
aI58
aF0.4911198435758505
aI309
aI20
aF0.20550407404824056
aF0.829027398333049
aI155
asbasg20
I20
sbg21
(g25
S'X\x8bF4\xcft\xf9?'
p776
tp777
Rp778
tp779
a(g1
(g2
g3
Ntp780
Rp781
(dp782
g7
I128
sg8
(lp783
g1
(g10
g3
Ntp784
Rp785
(dp786
g14
(lp787
I128
aI1
aF0.4205126941196703
aI90
aF0.675556285174896
aI411
aI50
aF0.17163859080065758
aF0.26374578171261287
aI310
asbag1
(g10
g3
Ntp788
Rp789
(dp790
g14
(lp791
I1
aI1
aF0.4703842367173393
aI35
aF0.47237666754901725
aI273
aI20
aF0.47905750432339167
aF0.7471152125701714
aI333
asbasg20
I20
sbg21
(g25
S'\xc0Q>?kO\xa1\xbf'
p792
tp793
Rp794
tp795
a(g1
(g2
g3
Ntp796
Rp797
(dp798
g7
I128
sg8
(lp799
g1
(g10
g3
Ntp800
Rp801
(dp802
g14
(lp803
I128
aI1
aF0.6491031365442195
aI72
aF0.45512139390478856
aI419
aI35
aF0.40379416760164205
aF0.41205691259091465
aI291
asbag1
(g10
g3
Ntp804
Rp805
(dp806
g14
(lp807
I1
aI1
aF0.06307489446591008
aI16
aF0.7100668324633533
aI119
aI20
aF0.3221652642441568
aF0.9338623816711265
aI394
asbasg20
I20
sbg21
(g25
S'\x0e\x97\xbc\xdat\x18\xee?'
p808
tp809
Rp810
tp811
a(g1
(g2
g3
Ntp812
Rp813
(dp814
g7
I128
sg8
(lp815
g1
(g10
g3
Ntp816
Rp817
(dp818
g14
(lp819
I128
aI1
aF0.4748136934017131
aI67
aF0.5701262108985574
aI153
aI20
aF0.33369890954290893
aF0.61614660946823
aI216
asbasg20
I20
sbg21
(g25
S'\xe4\xef\xdfzE\x10\xe5?'
p820
tp821
Rp822
tp823
a(g1
(g2
g3
Ntp824
Rp825
(dp826
g7
I128
sg8
(lp827
g1
(g10
g3
Ntp828
Rp829
(dp830
g14
(lp831
I128
aI1
aF0.4748136934017131
aI67
aF0.5701262108985574
aI153
aI20
aF0.33369890954290893
aF0.61614660946823
aI216
asbasg20
I20
sbg21
(g25
S'\x8c\x95\xcd\x11\xbf:\xea?'
p832
tp833
Rp834
tp835
a(g1
(g2
g3
Ntp836
Rp837
(dp838
g7
I128
sg8
(lp839
g1
(g10
g3
Ntp840
Rp841
(dp842
g14
(lp843
I128
aI1
aF0.6461109082210872
aI70
aF0.10769509546909725
aI422
aI62
aF0.3351266565072039
aF0.6117698316631939
aI173
asbag1
(g10
g3
Ntp844
Rp845
(dp846
g14
(lp847
I1
aI1
aF0.9070331253495246
aI72
aF0.6918195155447204
aI200
aI20
aF0.9044402824848898
aF0.823560092170588
aI319
asbasg20
I20
sbg21
(g25
S'\xd3\xa65\xc0\xc8\xcc\xf3\xbf'
p848
tp849
Rp850
tp851
a(g1
(g2
g3
Ntp852
Rp853
(dp854
g7
I128
sg8
(lp855
g1
(g10
g3
Ntp856
Rp857
(dp858
g14
(lp859
I128
aI1
aF0.6461109082210872
aI70
aF0.10769509546909725
aI422
aI62
aF0.3351266565072039
aF0.6117698316631939
aI173
asbag1
(g10
g3
Ntp860
Rp861
(dp862
g14
(lp863
I1
aI1
aF0.413786609263237
aI75
aF0.4537628277121906
aI445
aI19
aF0.20304498978825875
aF0.6680818589326041
aI420
asbag1
(g10
g3
Ntp864
Rp865
(dp866
g14
(lp867
I1
aI1
aF0.3910745600116864
aI54
aF0.9962404898013515
aI416
aI20
aF0.9520772726052056
aF0.6657620593328359
aI134
asbasg20
I20
sbg21
(g25
S'd\xb7\x00\xea\x8c@\xf7?'
p868
tp869
Rp870
tp871
a(g1
(g2
g3
Ntp872
Rp873
(dp874
g7
I128
sg8
(lp875
g1
(g10
g3
Ntp876
Rp877
(dp878
g14
(lp879
I128
aI2
aF0.7289718569096442
aI61
aF0.11800261956174318
aI451
aI28
aF0.7058280147243725
aF0.4788995645277333
aI317
asbag1
(g10
g3
Ntp880
Rp881
(dp882
g14
(lp883
I2
aI1
aF0.6044657351947589
aI56
aF0.35489846808190306
aI169
aI20
aF0.28380280707791006
aF0.4894051839642434
aI247
asbasg20
I20
sbg21
(g25
S'\xca\xfd\xebx;\xd0\xfb?'
p884
tp885
Rp886
tp887
a(g1
(g2
g3
Ntp888
Rp889
(dp890
g7
I128
sg8
(lp891
g1
(g10
g3
Ntp892
Rp893
(dp894
g14
(lp895
I128
aI1
aF0.6044657351947589
aI56
aF0.35489846808190306
aI169
aI18
aF0.28380280707791006
aF0.4894051839642434
aI247
asbag1
(g10
g3
Ntp896
Rp897
(dp898
g14
(lp899
I1
aI1
aF0.1292026889966268
aI67
aF0.24555546857479238
aI23
aI20
aF0.07039983545158046
aF0.49463531279383677
aI224
asbasg20
I20
sbg21
(g25
S'\x85\xfeX\xe17\x03\xd2?'
p900
tp901
Rp902
tp903
a(g1
(g2
g3
Ntp904
Rp905
(dp906
g7
I128
sg8
(lp907
g1
(g10
g3
Ntp908
Rp909
(dp910
g14
(lp911
I128
aI1
aF0.5858277889849508
aI72
aF0.101679500177208
aI201
aI47
aF0.14651631346403352
aF0.6268230018805473
aI205
asbag1
(g10
g3
Ntp912
Rp913
(dp914
g14
(lp915
I1
aI1
aF0.413786609263237
aI75
aF0.4537628277121906
aI445
aI19
aF0.20304498978825875
aF0.6680818589326041
aI293
asbag1
(g10
g3
Ntp916
Rp917
(dp918
g14
(lp919
I1
aI1
aF0.3910745600116864
aI54
aF0.9962404898013515
aI416
aI20
aF0.9520772726052056
aF0.6657620593328359
aI134
asbasg20
I20
sbg21
(g25
S'A\xe7\xdb\xbf\x892\xff?'
p920
tp921
Rp922
tp923
a(g1
(g2
g3
Ntp924
Rp925
(dp926
g7
I128
sg8
(lp927
g1
(g10
g3
Ntp928
Rp929
(dp930
g14
(lp931
I128
aI1
aF0.8590360953268742
aI57
aF0.08513290592104361
aI329
aI75
aF0.01500904906803835
aF0.8362395950877524
aI104
asbag1
(g10
g3
Ntp932
Rp933
(dp934
g14
(lp935
I1
aI1
aF0.36320304595313224
aI81
aF0.2859944610727815
aI259
aI20
aF0.2405342838241437
aF0.5427441338029731
aI300
asbasg20
I20
sbg21
(g25
S'7\xd4\xf2\xc7=#\xf6?'
p936
tp937
Rp938
tp939
a(g1
(g2
g3
Ntp940
Rp941
(dp942
g7
I128
sg8
(lp943
g1
(g10
g3
Ntp944
Rp945
(dp946
g14
(lp947
I128
aI1
aF0.39171165515208645
aI39
aF0.35896416615471327
aI175
aI20
aF0.40670969623701464
aF0.6612736791328916
aI244
asbasg20
I20
sbg21
(g25
S'\xa4\x9b\xf0\xbax\x06\xfd?'
p948
tp949
Rp950
tp951
a(g1
(g2
g3
Ntp952
Rp953
(dp954
g7
I128
sg8
(lp955
g1
(g10
g3
Ntp956
Rp957
(dp958
g14
(lp959
I128
aI1
aF0.39171165515208645
aI39
aF0.35896416615471327
aI175
aI36
aF0.40670969623701464
aF0.6612736791328916
aI244
asbag1
(g10
g3
Ntp960
Rp961
(dp962
g14
(lp963
I1
aI1
aF0.6482551298447481
aI35
aF0.2028272737682156
aI263
aI20
aF0.7392745960567926
aF0.6302669680870481
aI280
asbasg20
I20
sbg21
(g25
S'r+\x8am\xd2\x91\xf9?'
p964
tp965
Rp966
tp967
a(g1
(g2
g3
Ntp968
Rp969
(dp970
g7
I128
sg8
(lp971
g1
(g10
g3
Ntp972
Rp973
(dp974
g14
(lp975
I128
aI1
aF0.34977990014975013
aI61
aF0.2751653734254296
aI151
aI55
aF0.4395755013150304
aF0.21848727965531634
aI318
asbag1
(g10
g3
Ntp976
Rp977
(dp978
g14
(lp979
I1
aI1
aF0.0733782204612351
aI94
aF0.558504820515011
aI366
aI20
aF0.3368027711282352
aF0.48597099369321883
aI149
asbasg20
I20
sbg21
(g25
S'\xb3\x89q\xab\x92\xd3\xd0?'
p980
tp981
Rp982
tp983
a(g1
(g2
g3
Ntp984
Rp985
(dp986
g7
I128
sg8
(lp987
g1
(g10
g3
Ntp988
Rp989
(dp990
g14
(lp991
I128
aI1
aF0.34977990014975013
aI61
aF0.2751653734254296
aI151
aI20
aF0.4395755013150304
aF0.21848727965531634
aI318
asbasg20
I20
sbg21
(g25
S" '\xe6\xf7\xfa\x8c\xf9?"
p992
tp993
Rp994
tp995
a(g1
(g2
g3
Ntp996
Rp997
(dp998
g7
I128
sg8
(lp999
g1
(g10
g3
Ntp1000
Rp1001
(dp1002
g14
(lp1003
I128
aI1
aF0.32524695306154416
aI41
aF0.269313294815703
aI239
aI55
aF0.35559420062100516
aF0.3719144742047792
aI190
asbag1
(g10
g3
Ntp1004
Rp1005
(dp1006
g14
(lp1007
I1
aI1
aF0.7820155508472335
aI61
aF0.2706352211046835
aI74
aI20
aF0.9281931550721003
aF0.7932983527072552
aI173
asbasg20
I20
sbg21
(g25
S'Hh\x91ZN\t\xf6?'
p1008
tp1009
Rp1010
tp1011
a(g1
(g2
g3
Ntp1012
Rp1013
(dp1014
g7
I128
sg8
(lp1015
g1
(g10
g3
Ntp1016
Rp1017
(dp1018
g14
(lp1019
I128
aI1
aF0.32524695306154416
aI41
aF0.269313294815703
aI239
aI20
aF0.35559420062100516
aF0.3719144742047792
aI190
asbasg20
I20
sbg21
(g25
S'Fg\xa8\xc2\xecQ\xfb?'
p1020
tp1021
Rp1022
tp1023
a(g1
(g2
g3
Ntp1024
Rp1025
(dp1026
g7
I128
sg8
(lp1027
g1
(g10
g3
Ntp1028
Rp1029
(dp1030
g14
(lp1031
I128
aI1
aF0.5063913037297859
aI71
aF0.07200409915531725
aI60
aI48
aF0.07374034648986605
aF0.599975972302102
aI320
asbag1
(g10
g3
Ntp1032
Rp1033
(dp1034
g14
(lp1035
I1
aI1
aF0.6312112233904265
aI38
aF0.5570854397240648
aI427
aI54
aF0.3614486635764397
aF0.44960704828222914
aI297
asbag1
(g10
g3
Ntp1036
Rp1037
(dp1038
g14
(lp1039
I1
aI1
aF0.22544003211643332
aI47
aF0.630706052289026
aI388
aI20
aF0.5013545329010396
aF0.6974788103867251
aI269
asbasg20
I20
sbg21
(g25
S'$\x94b\x08\xd8\xdb\xe6?'
p1040
tp1041
Rp1042
tp1043
a(g1
(g2
g3
Ntp1044
Rp1045
(dp1046
g7
I128
sg8
(lp1047
g1
(g10
g3
Ntp1048
Rp1049
(dp1050
g14
(lp1051
I128
aI1
aF0.2731857941848157
aI65
aF0.4475484768131649
aI405
aI88
aF0.6396467142342982
aF0.3036007532789312
aI264
asbag1
(g10
g3
Ntp1052
Rp1053
(dp1054
g14
(lp1055
I1
aI1
aF0.3659156679231096
aI59
aF0.3513550757221716
aI224
aI34
aF0.2875474396954528
aF0.6487273913444136
aI294
asbag1
(g10
g3
Ntp1056
Rp1057
(dp1058
g14
(lp1059
I1
aI1
aF0.9892366525960372
aI12
aF0.6666224026349645
aI450
aI20
aF0.08325061291858116
aF0.5956133432855271
aI331
asbasg20
I20
sbg21
(g25
S'\xa0\x95l\xa7\xdf\xe4\xda\xbf'
p1060
tp1061
Rp1062
tp1063
a(g1
(g2
g3
Ntp1064
Rp1065
(dp1066
g7
I128
sg8
(lp1067
g1
(g10
g3
Ntp1068
Rp1069
(dp1070
g14
(lp1071
I128
aI1
aF0.3553572897110428
aI36
aF0.2169451230466718
aI280
aI20
aF0.7121894890647025
aF0.4888404512869848
aI197
asbag1
(g10
g3
Ntp1072
Rp1073
(dp1074
g14
(lp1075
I1
aI1
aF0.18349448455021966
aI52
aF0.3531565434497782
aI250
aI45
aF0.7259105293450109
aF0.4097408590894884
aI268
asbag1
(g10
g3
Ntp1076
Rp1077
(dp1078
g14
(lp1079
I1
aI1
aF0.9634987930668901
aI73
aF0.5288777328858337
aI44
aI20
aF0.5153295149843196
aF0.20565406095133143
aI370
asbasg20
I20
sbg21
(g25
S'Y\xe4\xb0\xd7\xe8a\xf4?'
p1080
tp1081
Rp1082
tp1083
a(g1
(g2
g3
Ntp1084
Rp1085
(dp1086
g7
I128
sg8
(lp1087
g1
(g10
g3
Ntp1088
Rp1089
(dp1090
g14
(lp1091
I128
aI1
aF0.028699472381449986
aI32
aF0.2169451230466718
aI421
aI34
aF0.8515007611709268
aF0.5312765558795391
aI59
asbag1
(g10
g3
Ntp1092
Rp1093
(dp1094
g14
(lp1095
I1
aI1
aF0.43275479579542764
aI46
aF0.285050833248225
aI195
aI26
aF0.6493943731517446
aF0.42807260289195936
aI302
asbag1
(g10
g3
Ntp1096
Rp1097
(dp1098
g14
(lp1099
I1
aI1
aF0.8548887083115626
aI34
aF0.2200933744903306
aI343
aI20
aF0.5138234971383445
aF0.331784126379799
aI119
asbasg20
I20
sbg21
(g25
S'\xc8\x8d\xd3\xc9h\x17\xd8?'
p1100
tp1101
Rp1102
tp1103
a(g1
(g2
g3
Ntp1104
Rp1105
(dp1106
g7
I128
sg8
(lp1107
g1
(g10
g3
Ntp1108
Rp1109
(dp1110
g14
(lp1111
I128
aI4
aF0.8274881589363214
aI81
aF0.05478051941164197
aI497
aI53
aF0.20605269109183644
aF0.15658251483903918
aI435
asbag1
(g10
g3
Ntp1112
Rp1113
(dp1114
g14
(lp1115
I4
aI1
aF0.6950729382796584
aI67
aF0.37397786379681003
aI214
aI36
aF0.24556701079142898
aF0.5114975677181295
aI229
asbag1
(g10
g3
Ntp1116
Rp1117
(dp1118
g14
(lp1119
I1
aI1
aF0.950565272871627
aI28
aF0.5708155789984594
aI173
aI20
aF0.7524061548701256
aF0.2386993985999235
aI453
asbasg20
I20
sbg21
(g25
S'\xe6zD\xde\xdf\xe2\xd1?'
p1120
tp1121
Rp1122
tp1123
a(g1
(g2
g3
Ntp1124
Rp1125
(dp1126
g7
I128
sg8
(lp1127
g1
(g10
g3
Ntp1128
Rp1129
(dp1130
g14
(lp1131
I128
aI1
aF0.7202377895569156
aI55
aF0.19824372169153592
aI114
aI36
aF0.03043617866823911
aF0.47185883916107885
aI189
asbag1
(g10
g3
Ntp1132
Rp1133
(dp1134
g14
(lp1135
I1
aI1
aF0.8102366799370141
aI53
aF0.5602637924502718
aI243
aI28
aF0.6065519988923722
aF0.39491784743755176
aI361
asbag1
(g10
g3
Ntp1136
Rp1137
(dp1138
g14
(lp1139
I1
aI1
aF0.06576827783996331
aI21
aF0.9717916584458722
aI247
aI20
aF0.04556117568975626
aF0.8849652025161501
aI315
asbasg20
I20
sbg21
(g25
S'\x99\xa7$\xab\x16\xa4\xeb?'
p1140
tp1141
Rp1142
tp1143
a(g1
(g2
g3
Ntp1144
Rp1145
(dp1146
g7
I128
sg8
(lp1147
g1
(g10
g3
Ntp1148
Rp1149
(dp1150
g14
(lp1151
I128
aI1
aF0.3006886848213689
aI68
aF0.35941310372259433
aI228
aI26
aF0.3852751305373007
aF0.382151252330192
aI177
asbag1
(g10
g3
Ntp1152
Rp1153
(dp1154
g14
(lp1155
I1
aI1
aF0.7159059692762801
aI47
aF0.4129820518979528
aI90
aI36
aF0.09468258051817313
aF0.42788792539205434
aI202
asbag1
(g10
g3
Ntp1156
Rp1157
(dp1158
g14
(lp1159
I1
aI1
aF0.6482551298447481
aI35
aF0.2028272737682156
aI293
aI20
aF0.7392745960567926
aF0.6302669680870481
aI280
asbasg20
I20
sbg21
(g25
S'\xf0\xbbF\xc8\xda\xb8\xfb?'
p1160
tp1161
Rp1162
tp1163
a(g1
(g2
g3
Ntp1164
Rp1165
(dp1166
g7
I128
sg8
(lp1167
g1
(g10
g3
Ntp1168
Rp1169
(dp1170
g14
(lp1171
I128
aI1
aF0.13478396734782772
aI77
aF0.24066975233033894
aI245
aI32
aF0.1898900132903919
aF0.2653286363436897
aI205
asbag1
(g10
g3
Ntp1172
Rp1173
(dp1174
g14
(lp1175
I1
aI1
aF0.5912496857855951
aI53
aF0.44556925350640125
aI150
aI20
aF0.33767141415119134
aF0.46343089685437433
aI176
asbasg20
I20
sbg21
(g25
S'\xa3\xe7`\xa0\xd93\xea?'
p1176
tp1177
Rp1178
tp1179
a(g1
(g2
g3
Ntp1180
Rp1181
(dp1182
g7
I128
sg8
(lp1183
g1
(g10
g3
Ntp1184
Rp1185
(dp1186
g14
(lp1187
I128
aI1
aF0.714778939851181
aI79
aF0.2999740514919692
aI238
aI39
aF0.5175314908987592
aF0.2819643893544747
aI325
asbag1
(g10
g3
Ntp1188
Rp1189
(dp1190
g14
(lp1191
I1
aI1
aF0.0733782204612351
aI94
aF0.6607959367364353
aI411
aI20
aF0.6902596962080979
aF0.3154346607531212
aI56
asbasg20
I20
sbg21
(g25
S'4"\xa4\xa4s\xc6\xd9?'
p1192
tp1193
Rp1194
tp1195
a(g1
(g2
g3
Ntp1196
Rp1197
(dp1198
g7
I128
sg8
(lp1199
g1
(g10
g3
Ntp1200
Rp1201
(dp1202
g14
(lp1203
I128
aI1
aF0.714778939851181
aI79
aF0.2999740514919692
aI238
aI39
aF0.5175314908987592
aF0.2819643893544747
aI325
asbag1
(g10
g3
Ntp1204
Rp1205
(dp1206
g14
(lp1207
I1
aI1
aF0.08587814886100768
aI66
aF0.31920764872895974
aI133
aI44
aF0.27321196062891534
aF0.6226787430794138
aI239
asbag1
(g10
g3
Ntp1208
Rp1209
(dp1210
g14
(lp1211
I1
aI1
aF0.4464373829971504
aI34
aF0.7127772512203068
aI272
aI20
aF0.5664736430931352
aF0.8286187168337826
aI253
asbasg20
I20
sbg21
(g25
S'(e\x15\x8c,G\xf5\xbf'
p1212
tp1213
Rp1214
tp1215
a(g1
(g2
g3
Ntp1216
Rp1217
(dp1218
g7
I128
sg8
(lp1219
g1
(g10
g3
Ntp1220
Rp1221
(dp1222
g14
(lp1223
I128
aI2
aF0.6762299471878241
aI44
aF0.034843789904122846
aI211
aI70
aF0.8498333014559786
aF0.5910954242753782
aI256
asbag1
(g10
g3
Ntp1224
Rp1225
(dp1226
g14
(lp1227
I2
aI2
aF0.46591611314802195
aI16
aF0.9787284350689219
aI255
aI28
aF0.4930706054501208
aF0.2742807611527316
aI387
asbag1
(g10
g3
Ntp1228
Rp1229
(dp1230
g14
(lp1231
I2
aI1
aF0.7209912046777169
aI53
aF0.3951062177076059
aI253
aI38
aF0.19333439788772078
aF0.5435799126408264
aI371
asbag1
(g10
g3
Ntp1232
Rp1233
(dp1234
g14
(lp1235
I1
aI1
aF0.5851245811229127
aI59
aF0.3213084813935303
aI298
aI34
aF0.47767728455285996
aF0.6370937086170092
aI273
asbag1
(g10
g3
Ntp1236
Rp1237
(dp1238
g14
(lp1239
I1
aI1
aF0.34963674369745057
aI17
aF0.5577329782050064
aI306
aI20
aF0.06698962615224224
aF0.20540239953139094
aI428
asbasg20
I20
sbg21
(g25
S'u\x82b\x97!\x87\xf1?'
p1240
tp1241
Rp1242
tp1243
a(g1
(g2
g3
Ntp1244
Rp1245
(dp1246
g7
I128
sg8
(lp1247
g1
(g10
g3
Ntp1248
Rp1249
(dp1250
g14
(lp1251
I128
aI1
aF0.6094764056403157
aI50
aF0.31635067583982046
aI180
aI43
aF0.41118985462367164
aF0.581128105389781
aI269
asbag1
(g10
g3
Ntp1252
Rp1253
(dp1254
g14
(lp1255
I1
aI1
aF0.672287555642911
aI72
aF0.4050218288150256
aI490
aI20
aF0.3263092577460974
aF0.6555111190952826
aI379
asbasg20
I20
sbg21
(g25
S'\xdd\x00.H\xdc\xaa\xf4?'
p1256
tp1257
Rp1258
tp1259
a(g1
(g2
g3
Ntp1260
Rp1261
(dp1262
g7
I128
sg8
(lp1263
g1
(g10
g3
Ntp1264
Rp1265
(dp1266
g14
(lp1267
I128
aI1
aF0.5434472273618622
aI33
aF0.2071718123638402
aI34
aI83
aF0.11097673150724685
aF0.6656092899960563
aI81
asbag1
(g10
g3
Ntp1268
Rp1269
(dp1270
g14
(lp1271
I1
aI1
aF0.5718887390780314
aI61
aF0.33604373069862237
aI83
aI28
aF0.4382082443784172
aF0.7018306420544158
aI335
asbag1
(g10
g3
Ntp1272
Rp1273
(dp1274
g14
(lp1275
I1
aI1
aF0.9050092814949712
aI22
aF0.38496412908707806
aI143
aI27
aF0.7817918030965447
aF0.6014934861698287
aI377
asbag1
(g10
g3
Ntp1276
Rp1277
(dp1278
g14
(lp1279
I1
aI1
aF0.8265729957724962
aI84
aF0.9445358407775246
aI55
aI20
aF0.45519583552368836
aF0.7437151722203121
aI387
asbasg20
I20
sbg21
(g25
S'\xe4N\xfeMA\n\xf6?'
p1280
tp1281
Rp1282
tp1283
a(g1
(g2
g3
Ntp1284
Rp1285
(dp1286
g7
I128
sg8
(lp1287
g1
(g10
g3
Ntp1288
Rp1289
(dp1290
g14
(lp1291
I128
aI1
aF0.8594532901183154
aI17
aF0.19911267917569675
aI114
aI35
aF0.8617821187856267
aF0.6619057570641947
aI302
asbag1
(g10
g3
Ntp1292
Rp1293
(dp1294
g14
(lp1295
I1
aI1
aF0.6850101115671792
aI58
aF0.5758538265706824
aI44
aI51
aF0.2830862835154676
aF0.7046622311081843
aI234
asbag1
(g10
g3
Ntp1296
Rp1297
(dp1298
g14
(lp1299
I1
aI1
aF0.5718887390780314
aI61
aF0.33604373069862237
aI83
aI28
aF0.4382082443784172
aF0.7018306420544158
aI335
asbag1
(g10
g3
Ntp1300
Rp1301
(dp1302
g14
(lp1303
I1
aI1
aF0.950565272871627
aI28
aF0.5708155789984594
aI173
aI20
aF0.7018014874074627
aF0.5410812152754627
aI453
asbasg20
I20
sbg21
(g25
S'\x01*\xf3\xc1\x9c\xfc\xef\xbf'
p1304
tp1305
Rp1306
tp1307
a(g1
(g2
g3
Ntp1308
Rp1309
(dp1310
g7
I128
sg8
(lp1311
g1
(g10
g3
Ntp1312
Rp1313
(dp1314
g14
(lp1315
I128
aI1
aF0.6015610665095509
aI59
aF0.5110681351893879
aI230
aI20
aF0.2841721545065531
aF0.4987812705132642
aI236
asbasg20
I20
sbg21
(g25
S'@\x85\x88H\xd2\x8f\xe5\xbf'
p1316
tp1317
Rp1318
tp1319
a(g1
(g2
g3
Ntp1320
Rp1321
(dp1322
g7
I128
sg8
(lp1323
g1
(g10
g3
Ntp1324
Rp1325
(dp1326
g14
(lp1327
I128
aI1
aF0.27620213105947633
aI75
aF0.39126111575715117
aI198
aI41
aF0.6103332142115991
aF0.6899504424372871
aI362
asbag1
(g10
g3
Ntp1328
Rp1329
(dp1330
g14
(lp1331
I1
aI1
aF0.7206507084770646
aI27
aF0.16057718016839662
aI180
aI20
aF0.8669971158916426
aF0.5313497005010174
aI319
asbasg20
I20
sbg21
(g25
S'\xe2\xbczy\xf4\xaa\xee?'
p1332
tp1333
Rp1334
tp1335
a(g1
(g2
g3
Ntp1336
Rp1337
(dp1338
g7
I128
sg8
(lp1339
g1
(g10
g3
Ntp1340
Rp1341
(dp1342
g14
(lp1343
I128
aI1
aF0.4969184354881129
aI71
aF0.4450929200386944
aI217
aI44
aF0.39794375952241934
aF0.5551576988965862
aI364
asbag1
(g10
g3
Ntp1344
Rp1345
(dp1346
g14
(lp1347
I1
aI1
aF0.8881408274678794
aI27
aF0.05626739438209016
aI427
aI20
aF0.9919724968380911
aF0.8494961976372658
aI242
asbasg20
I20
sbg21
(g25
S'4NAn\x7f\xb0\xf0?'
p1348
tp1349
Rp1350
tp1351
a(g1
(g2
g3
Ntp1352
Rp1353
(dp1354
g7
I128
sg8
(lp1355
g1
(g10
g3
Ntp1356
Rp1357
(dp1358
g14
(lp1359
I128
aI2
aF0.6762299471878241
aI14
aF0.034843789904122846
aI247
aI70
aF0.7909836726647689
aF0.5910954242753782
aI256
asbag1
(g10
g3
Ntp1360
Rp1361
(dp1362
g14
(lp1363
I2
aI2
aF0.46591611314802195
aI16
aF0.9787284350689219
aI183
aI28
aF0.23379131484248594
aF0.5497864196355269
aI18
asbag1
(g10
g3
Ntp1364
Rp1365
(dp1366
g14
(lp1367
I2
aI1
aF0.6334216290297721
aI70
aF0.607952056934109
aI157
aI44
aF0.5075038522507807
aF0.506520719862941
aI269
asbag1
(g10
g3
Ntp1368
Rp1369
(dp1370
g14
(lp1371
I1
aI1
aF0.6242780347071666
aI49
aF0.16925058876268498
aI352
aI32
aF0.6401780818160746
aF0.7266454377837486
aI351
asbag1
(g10
g3
Ntp1372
Rp1373
(dp1374
g14
(lp1375
I1
aI1
aF0.35384957328314914
aI54
aF0.9962404898013515
aI416
aI20
aF0.9520772726052056
aF0.6657620593328359
aI48
asbasg20
I20
sbg21
(g25
S'\\\xf2j\xd3a\xd8\xf0?'
p1376
tp1377
Rp1378
tp1379
a(g1
(g2
g3
Ntp1380
Rp1381
(dp1382
g7
I128
sg8
(lp1383
g1
(g10
g3
Ntp1384
Rp1385
(dp1386
g14
(lp1387
I128
aI1
aF0.40315790799987283
aI84
aF0.2862329670241608
aI90
aI33
aF0.49432127093018763
aF0.7809349387854946
aI147
asbag1
(g10
g3
Ntp1388
Rp1389
(dp1390
g14
(lp1391
I1
aI1
aF0.4773441223885073
aI44
aF0.3444151555563139
aI262
aI20
aF0.4439774811842542
aF0.667527534204051
aI186
asbasg20
I20
sbg21
(g25
S'd\xc1\xa1.\x13g\xf3?'
p1392
tp1393
Rp1394
tp1395
a(g1
(g2
g3
Ntp1396
Rp1397
(dp1398
g7
I128
sg8
(lp1399
g1
(g10
g3
Ntp1400
Rp1401
(dp1402
g14
(lp1403
I128
aI1
aF0.4470810059447774
aI63
aF0.3133703715294677
aI181
aI26
aF0.4854209460612874
aF0.8514781238805207
aI134
asbag1
(g10
g3
Ntp1404
Rp1405
(dp1406
g14
(lp1407
I1
aI1
aF0.4636841408873328
aI47
aF0.3483225350778533
aI252
aI20
aF0.4114343411761212
aF0.41303375943255494
aI251
asbasg20
I20
sbg21
(g25
S'\xc5\xf2\x80\xec\x9f\xd2\xf2?'
p1408
tp1409
Rp1410
tp1411
a(g1
(g2
g3
Ntp1412
Rp1413
(dp1414
g7
I128
sg8
(lp1415
g1
(g10
g3
Ntp1416
Rp1417
(dp1418
g14
(lp1419
I128
aI1
aF0.4376767720438705
aI53
aF0.15664735316979161
aI92
aI20
aF0.2669928492800908
aF0.3063025328445031
aI210
asbasg20
I20
sbg21
(g25
S'\xfb\x14V\xb8\x8c\xdf\xf1?'
p1420
tp1421
Rp1422
tp1423
a(g1
(g2
g3
Ntp1424
Rp1425
(dp1426
g7
I128
sg8
(lp1427
g1
(g10
g3
Ntp1428
Rp1429
(dp1430
g14
(lp1431
I128
aI1
aF0.5351114791454439
aI59
aF0.1367808284070383
aI246
aI61
aF0.5598538170995889
aF0.5490383625331756
aI298
asbag1
(g10
g3
Ntp1432
Rp1433
(dp1434
g14
(lp1435
I1
aI1
aF0.5832480808027836
aI99
aF0.03497737472671625
aI331
aI20
aF0.6921642727371359
aF0.2144316123119726
aI247
asbasg20
I20
sbg21
(g25
S'vO\x03&+\x8d\xe3?'
p1436
tp1437
Rp1438
tp1439
a(g1
(g2
g3
Ntp1440
Rp1441
(dp1442
g7
I128
sg8
(lp1443
g1
(g10
g3
Ntp1444
Rp1445
(dp1446
g14
(lp1447
I128
aI1
aF0.19155001945004002
aI75
aF0.11973582549749562
aI243
aI66
aF0.5469235731557608
aF0.7400939830017719
aI153
asbag1
(g10
g3
Ntp1448
Rp1449
(dp1450
g14
(lp1451
I1
aI1
aF0.5832480808027836
aI89
aF0.1467102695915098
aI481
aI20
aF0.4563616136937242
aF0.2144316123119726
aI247
asbasg20
I20
sbg21
(g25
S'\xc0\xec\xa8\x0ed\xf9\xf5?'
p1452
tp1453
Rp1454
tp1455
a(g1
(g2
g3
Ntp1456
Rp1457
(dp1458
g7
I128
sg8
(lp1459
g1
(g10
g3
Ntp1460
Rp1461
(dp1462
g14
(lp1463
I128
aI1
aF0.9990845449991386
aI72
aF0.32922725303016864
aI278
aI44
aF0.2883836667940581
aF0.2535411420529545
aI161
asbag1
(g10
g3
Ntp1464
Rp1465
(dp1466
g14
(lp1467
I1
aI1
aF0.35384957328314914
aI54
aF0.408725182191919
aI497
aI20
aF0.011780174966323997
aF0.6657620593328359
aI218
asbasg20
I20
sbg21
(g25
S'~\x0e\xdbwv4\xbe\xbf'
p1468
tp1469
Rp1470
tp1471
a(g1
(g2
g3
Ntp1472
Rp1473
(dp1474
g7
I128
sg8
(lp1475
g1
(g10
g3
Ntp1476
Rp1477
(dp1478
g14
(lp1479
I128
aI1
aF0.5434472273618622
aI33
aF0.2071718123638402
aI34
aI83
aF0.11097673150724685
aF0.6656092899960563
aI81
asbag1
(g10
g3
Ntp1480
Rp1481
(dp1482
g14
(lp1483
I1
aI1
aF0.17617367076297138
aI77
aF0.23256512843684296
aI294
aI26
aF0.5721960992032502
aF0.6157826230850167
aI441
asbag1
(g10
g3
Ntp1484
Rp1485
(dp1486
g14
(lp1487
I1
aI1
aF0.5832480808027836
aI21
aF0.1467102695915098
aI331
aI20
aF0.4563616136937242
aF0.2144316123119726
aI247
asbasg20
I20
sbg21
(g25
S'\xa3i\xbd\x06\xa7\x94\xea\xbf'
p1488
tp1489
Rp1490
tp1491
a(g1
(g2
g3
Ntp1492
Rp1493
(dp1494
g7
I128
sg8
(lp1495
g1
(g10
g3
Ntp1496
Rp1497
(dp1498
g14
(lp1499
I128
aI4
aF0.29161197205172956
aI73
aF0.43345208919485945
aI222
aI20
aF0.5794990881514783
aF0.4650555204142196
aI246
asbag1
(g10
g3
Ntp1500
Rp1501
(dp1502
g14
(lp1503
I4
aI1
aF0.6596240526751822
aI74
aF0.7536718286363896
aI164
aI20
aF0.5693730161966236
aF0.27046155712795794
aI420
asbasg20
I20
sbg21
(g25
S'\xa7U\x0f\xfe5v\xef?'
p1504
tp1505
Rp1506
tp1507
a(g1
(g2
g3
Ntp1508
Rp1509
(dp1510
g7
I128
sg8
(lp1511
g1
(g10
g3
Ntp1512
Rp1513
(dp1514
g14
(lp1515
I128
aI2
aF0.4063195349011781
aI41
aF0.2071718123638402
aI34
aI83
aF0.6384224743167747
aF0.6656092899960563
aI81
asbag1
(g10
g3
Ntp1516
Rp1517
(dp1518
g14
(lp1519
I2
aI1
aF0.5923389376907933
aI40
aF0.5264296487665356
aI329
aI62
aF0.0959119679637952
aF0.4385436044953015
aI474
asbag1
(g10
g3
Ntp1520
Rp1521
(dp1522
g14
(lp1523
I1
aI1
aF0.5340934199167015
aI67
aF0.4738437397057088
aI53
aI20
aF0.8420645108775274
aF0.9318024449477527
aI482
asbasg20
I20
sbg21
(g25
S'\xa6J\xc6\t\x94\x8e\xb8?'
p1524
tp1525
Rp1526
tp1527
a(g1
(g2
g3
Ntp1528
Rp1529
(dp1530
g7
I128
sg8
(lp1531
g1
(g10
g3
Ntp1532
Rp1533
(dp1534
g14
(lp1535
I128
aI1
aF0.6506962798236363
aI63
aF0.6795461414251935
aI174
aI20
aF0.2044305980451465
aF0.7861111564314611
aI129
asbasg20
I20
sbg21
(g25
S'\x8dN\x9b\xde\xcd\xfa\xf4?'
p1536
tp1537
Rp1538
tp1539
a(g1
(g2
g3
Ntp1540
Rp1541
(dp1542
g7
I128
sg8
(lp1543
g1
(g10
g3
Ntp1544
Rp1545
(dp1546
g14
(lp1547
I128
aI32
aF0.7202377895569156
aI89
aF0.36191007690456467
aI81
aI43
aF0.034351977879306994
aF0.9448556680691358
aI189
asbag1
(g10
g3
Ntp1548
Rp1549
(dp1550
g14
(lp1551
I32
aI1
aF0.7217570604324031
aI41
aF0.9516922465038931
aI189
aI20
aF0.4733244216779016
aF0.6734843856385857
aI392
asbasg20
I20
sbI-50
tp1552
a(g1
(g2
g3
Ntp1553
Rp1554
(dp1555
g7
I128
sg8
(lp1556
g1
(g10
g3
Ntp1557
Rp1558
(dp1559
g14
(lp1560
I128
aI1
aF0.6688053149865831
aI68
aF0.39837541931731835
aI193
aI20
aF0.39905301891257755
aF0.6149248458458753
aI107
asbasg20
I20
sbg21
(g25
S'\x84\xd8\x19\x19\xd1o\xf9?'
p1561
tp1562
Rp1563
tp1564
a(g1
(g2
g3
Ntp1565
Rp1566
(dp1567
g7
I128
sg8
(lp1568
g1
(g10
g3
Ntp1569
Rp1570
(dp1571
g14
(lp1572
I128
aI1
aF0.22832398561846234
aI78
aF0.7015833939022672
aI310
aI45
aF0.9637803050645024
aF0.4716212259030898
aI287
asbag1
(g10
g3
Ntp1573
Rp1574
(dp1575
g14
(lp1576
I1
aI1
aF0.42353968859914726
aI67
aF0.6556062510082312
aI112
aI20
aF0.8420645108775274
aF0.7388885782483828
aI57
asbasg20
I20
sbg21
(g25
S'Zx\r\x9e\xa0\x1a\xe1\xbf'
p1577
tp1578
Rp1579
tp1580
a(g1
(g2
g3
Ntp1581
Rp1582
(dp1583
g7
I128
sg8
(lp1584
g1
(g10
g3
Ntp1585
Rp1586
(dp1587
g14
(lp1588
I128
aI1
aF0.8483540325880123
aI39
aF0.0643511764543368
aI236
aI84
aF0.9455902310591555
aF0.5822176924352963
aI279
asbag1
(g10
g3
Ntp1589
Rp1590
(dp1591
g14
(lp1592
I1
aI1
aF0.26256461166650813
aI59
aF0.6358566208895743
aI334
aI20
aF0.6692083106661973
aF0.6757460308401887
aI327
asbasg20
I20
sbg21
(g25
S'<\xcd\x901\xc8\xc5\xf0?'
p1593
tp1594
Rp1595
tp1596
a(g1
(g2
g3
Ntp1597
Rp1598
(dp1599
g7
I128
sg8
(lp1600
g1
(g10
g3
Ntp1601
Rp1602
(dp1603
g14
(lp1604
I128
aI1
aF0.27561557510710766
aI68
aF0.15561332897855124
aI367
aI20
aF0.6128016639932273
aF0.33033909256893584
aI119
asbasg20
I20
sbg21
(g25
S'b=t\xca\xcf\x16\xe7?'
p1605
tp1606
Rp1607
tp1608
a(g1
(g2
g3
Ntp1609
Rp1610
(dp1611
g7
I128
sg8
(lp1612
g1
(g10
g3
Ntp1613
Rp1614
(dp1615
g14
(lp1616
I128
aI4
aF0.7274017371595565
aI61
aF0.11114554870014198
aI332
aI69
aF0.4676545610811351
aF0.8160368523060415
aI307
asbag1
(g10
g3
Ntp1617
Rp1618
(dp1619
g14
(lp1620
I4
aI1
aF0.1671993074445028
aI47
aF0.7563851216528384
aI173
aI20
aF0.43259307605055036
aF0.5837883283432287
aI190
asbasg20
I20
sbg21
(g25
S'\x92\xe5u\xfe^\x98\xff?'
p1621
tp1622
Rp1623
tp1624
a(g1
(g2
g3
Ntp1625
Rp1626
(dp1627
g7
I128
sg8
(lp1628
g1
(g10
g3
Ntp1629
Rp1630
(dp1631
g14
(lp1632
I128
aI1
aF0.7122810733803471
aI52
aF0.18673339752589815
aI393
aI20
aF0.53739712538796
aF0.48580624384284266
aI210
asbasg20
I20
sbg21
(g25
S'vQlET\x84\xf2?'
p1633
tp1634
Rp1635
tp1636
a(g1
(g2
g3
Ntp1637
Rp1638
(dp1639
g7
I128
sg8
(lp1640
g1
(g10
g3
Ntp1641
Rp1642
(dp1643
g14
(lp1644
I128
aI1
aF0.2631869248672053
aI54
aF0.32398249182159317
aI288
aI34
aF0.5242227511020643
aF0.5056241639281542
aI328
asbag1
(g10
g3
Ntp1645
Rp1646
(dp1647
g14
(lp1648
I1
aI1
aF0.6409407138459428
aI27
aF0.7506052744524855
aI250
aI20
aF0.5479754765155461
aF0.951845867532146
aI394
asbasg20
I20
sbg21
(g25
S':\x0f\xd9\xa3\t\xf4\xf4?'
p1649
tp1650
Rp1651
tp1652
a(g1
(g2
g3
Ntp1653
Rp1654
(dp1655
g7
I128
sg8
(lp1656
g1
(g10
g3
Ntp1657
Rp1658
(dp1659
g14
(lp1660
I128
aI4
aF0.17899535773649933
aI43
aF0.1183902815630905
aI482
aI84
aF0.33529834693355576
aF0.6485481371039882
aI79
asbag1
(g10
g3
Ntp1661
Rp1662
(dp1663
g14
(lp1664
I4
aI1
aF0.39027803090100577
aI81
aF0.6216710469961575
aI283
aI20
aF0.3350705456619926
aF0.46708520792664504
aI266
asbasg20
I20
sbg21
(g25
S'+7\xda\x01\x84j\xfa?'
p1665
tp1666
Rp1667
tp1668
a(g1
(g2
g3
Ntp1669
Rp1670
(dp1671
g7
I128
sg8
(lp1672
g1
(g10
g3
Ntp1673
Rp1674
(dp1675
g14
(lp1676
I128
aI1
aF0.6801424996984229
aI62
aF0.4913564800004449
aI172
aI21
aF0.1874378203947869
aF0.5275612528442574
aI146
asbag1
(g10
g3
Ntp1677
Rp1678
(dp1679
g14
(lp1680
I1
aI1
aF0.7206507084770646
aI27
aF0.16057718016839662
aI180
aI20
aF0.8669971158916426
aF0.5313497005010174
aI319
asbasg20
I20
sbg21
(g25
S'\x1b\xf6\xb8\xeeY\xd8\xf4?'
p1681
tp1682
Rp1683
tp1684
a(g1
(g2
g3
Ntp1685
Rp1686
(dp1687
g7
I128
sg8
(lp1688
g1
(g10
g3
Ntp1689
Rp1690
(dp1691
g14
(lp1692
I128
aI1
aF0.2079990425742414
aI97
aF0.09898474056670581
aI254
aI55
aF0.6448936956814402
aF0.8243059344565888
aI446
asbag1
(g10
g3
Ntp1693
Rp1694
(dp1695
g14
(lp1696
I1
aI1
aF0.5895167059606135
aI59
aF0.6350649321639896
aI427
aI39
aF0.6032664721525156
aF0.2657518161337393
aI378
asbag1
(g10
g3
Ntp1697
Rp1698
(dp1699
g14
(lp1700
I1
aI1
aF0.9598106894841063
aI21
aF0.7731220629522015
aI86
aI20
aF0.718715935553886
aF0.8980060125313886
aI459
asbasg20
I20
sbg21
(g25
S'(B\xee{\xcfz\xf0?'
p1701
tp1702
Rp1703
tp1704
a(g1
(g2
g3
Ntp1705
Rp1706
(dp1707
g7
I128
sg8
(lp1708
g1
(g10
g3
Ntp1709
Rp1710
(dp1711
g14
(lp1712
I128
aI32
aF0.7202377895569156
aI55
aF0.19824372169153592
aI114
aI36
aF0.034351977879306994
aF0.47185883916107885
aI189
asbag1
(g10
g3
Ntp1713
Rp1714
(dp1715
g14
(lp1716
I32
aI1
aF0.992318033068988
aI49
aF0.6681194036478453
aI112
aI8
aF0.6600626087166965
aF0.9313382184260819
aI292
asbag1
(g10
g3
Ntp1717
Rp1718
(dp1719
g14
(lp1720
I1
aI1
aF0.5852729693579459
aI48
aF0.39498898091956675
aI177
aI20
aF0.6242268101674411
aF0.767573848791756
aI374
asbasg20
I20
sbI-50
tp1721
a(g1
(g2
g3
Ntp1722
Rp1723
(dp1724
g7
I128
sg8
(lp1725
g1
(g10
g3
Ntp1726
Rp1727
(dp1728
g14
(lp1729
I128
aI2
aF0.8550854701006436
aI36
aF0.1133259023541423
aI327
aI96
aF0.648637417040991
aF0.7369158684454353
aI411
asbag1
(g10
g3
Ntp1730
Rp1731
(dp1732
g14
(lp1733
I2
aI1
aF0.09686417384658119
aI38
aF0.7525728105897918
aI341
aI40
aF0.24630961860570955
aF0.39525326095042146
aI282
asbag1
(g10
g3
Ntp1734
Rp1735
(dp1736
g14
(lp1737
I1
aI1
aF0.19803213377342732
aI18
aF0.22616182497864767
aI345
aI20
aF0.6913557138050452
aF0.41404833301957733
aI461
asbasg20
I20
sbg21
(g25
S'\x90\xb5\x1dyuZ\xd5?'
p1738
tp1739
Rp1740
tp1741
a(g1
(g2
g3
Ntp1742
Rp1743
(dp1744
g7
I128
sg8
(lp1745
g1
(g10
g3
Ntp1746
Rp1747
(dp1748
g14
(lp1749
I128
aI1
aF0.8483540325880123
aI39
aF0.0643511764543368
aI236
aI84
aF0.9455902310591555
aF0.5822176924352963
aI279
asbag1
(g10
g3
Ntp1750
Rp1751
(dp1752
g14
(lp1753
I1
aI1
aF0.3606859992024152
aI68
aF0.42628515281409524
aI409
aI88
aF0.4829779859901978
aF0.46286481476866803
aI321
asbag1
(g10
g3
Ntp1754
Rp1755
(dp1756
g14
(lp1757
I1
aI1
aF0.3352346389727008
aI46
aF0.5546197068201503
aI338
aI20
aF0.6151291371255017
aF0.6543405546788086
aI244
asbasg20
I20
sbg21
(g25
S'\xf4<\xbc\xac\xa6\x18\xfc?'
p1758
tp1759
Rp1760
tp1761
a(g1
(g2
g3
Ntp1762
Rp1763
(dp1764
g7
I128
sg8
(lp1765
g1
(g10
g3
Ntp1766
Rp1767
(dp1768
g14
(lp1769
I128
aI2
aF0.6762299471878241
aI44
aF0.034843789904122846
aI211
aI70
aF0.8498333014559786
aF0.5910954242753782
aI256
asbag1
(g10
g3
Ntp1770
Rp1771
(dp1772
g14
(lp1773
I2
aI2
aF0.46591611314802195
aI16
aF0.9787284350689219
aI255
aI28
aF0.4930706054501208
aF0.2742807611527316
aI447
asbag1
(g10
g3
Ntp1774
Rp1775
(dp1776
g14
(lp1777
I2
aI1
aF0.5829463140285597
aI49
aF0.7050795294941682
aI198
aI19
aF0.3716597467074032
aF0.2509202301939004
aI248
asbag1
(g10
g3
Ntp1778
Rp1779
(dp1780
g14
(lp1781
I1
aI1
aF0.3253263028910396
aI19
aF0.10365850819970146
aI238
aI20
aF0.47451039950099694
aF0.37674321642408604
aI23
asbasg20
I20
sbg21
(g25
S'z"\xd6\x13\x8b\xb3\xe1\xbf'
p1782
tp1783
Rp1784
tp1785
a(g1
(g2
g3
Ntp1786
Rp1787
(dp1788
g7
I128
sg8
(lp1789
g1
(g10
g3
Ntp1790
Rp1791
(dp1792
g14
(lp1793
I128
aI4
aF0.8590360953268742
aI57
aF0.07391534225927587
aI399
aI75
aF0.4449204564410252
aF0.8362395950877524
aI494
asbag1
(g10
g3
Ntp1794
Rp1795
(dp1796
g14
(lp1797
I4
aI1
aF0.3581248729150178
aI40
aF0.901114735332424
aI127
aI72
aF0.35685823091489133
aF0.3081771961907571
aI227
asbag1
(g10
g3
Ntp1798
Rp1799
(dp1800
g14
(lp1801
I1
aI1
aF0.672287555642911
aI71
aF0.59909504395955
aI490
aI20
aF0.3263092577460974
aF0.6555111190952826
aI379
asbasg20
I20
sbg21
(g25
S'\xc1.\xbd\xeaa\x87\xc4?'
p1802
tp1803
Rp1804
tp1805
a(g1
(g2
g3
Ntp1806
Rp1807
(dp1808
g7
I128
sg8
(lp1809
g1
(g10
g3
Ntp1810
Rp1811
(dp1812
g14
(lp1813
I128
aI64
aF0.21375436709138307
aI46
aF0.12450084892492519
aI346
aI48
aF0.7704219243441
aF0.5938419191829664
aI350
asbag1
(g10
g3
Ntp1814
Rp1815
(dp1816
g14
(lp1817
I64
aI1
aF0.5571295415197532
aI32
aF0.6963516193556193
aI380
aI13
aF0.7908644244041734
aF0.204185329322355
aI186
asbag1
(g10
g3
Ntp1818
Rp1819
(dp1820
g14
(lp1821
I1
aI1
aF0.4767800982444851
aI44
aF0.6370347045853733
aI212
aI20
aF0.5446752435219769
aF0.6846261381027441
aI350
asbasg20
I20
sbI-50
tp1822
a(g1
(g2
g3
Ntp1823
Rp1824
(dp1825
g7
I128
sg8
(lp1826
g1
(g10
g3
Ntp1827
Rp1828
(dp1829
g14
(lp1830
I128
aI64
aF0.5434472273618622
aI33
aF0.39389161270704065
aI34
aI83
aF0.11097673150724685
aF0.6656092899960563
aI81
asbag1
(g10
g3
Ntp1831
Rp1832
(dp1833
g14
(lp1834
I64
aI1
aF0.7447744815665469
aI75
aF0.45867361331705336
aI251
aI33
aF0.9187141429668769
aF0.11334843810562911
aI249
asbag1
(g10
g3
Ntp1835
Rp1836
(dp1837
g14
(lp1838
I1
aI1
aF0.42353968859914726
aI67
aF0.4738437397057088
aI53
aI20
aF0.8420645108775274
aF0.9318024449477527
aI482
asbasg20
I20
sbI-50
tp1839
a(g1
(g2
g3
Ntp1840
Rp1841
(dp1842
g7
I128
sg8
(lp1843
g1
(g10
g3
Ntp1844
Rp1845
(dp1846
g14
(lp1847
I128
aI2
aF0.5311171640342238
aI57
aF0.361299837846591
aI318
aI50
aF0.306528258124195
aF0.5969819777134586
aI288
asbag1
(g10
g3
Ntp1848
Rp1849
(dp1850
g14
(lp1851
I2
aI1
aF0.23395257276329526
aI70
aF0.31036496052136403
aI249
aI20
aF0.17890214984522437
aF0.5490295037216338
aI384
asbasg20
I20
sbg21
(g25
S'lx7\xdcTR\xec?'
p1852
tp1853
Rp1854
tp1855
a(g1
(g2
g3
Ntp1856
Rp1857
(dp1858
g7
I128
sg8
(lp1859
g1
(g10
g3
Ntp1860
Rp1861
(dp1862
g14
(lp1863
I128
aI16
aF0.3487795710252726
aI68
aF0.11988635411302029
aI319
aI37
aF0.6414646177469747
aF0.21299137619696878
aI244
asbag1
(g10
g3
Ntp1864
Rp1865
(dp1866
g14
(lp1867
I16
aI1
aF0.2853317519989702
aI95
aF0.16605800683262295
aI173
aI20
aF0.7749436000900352
aF0.32469860098544867
aI392
asbasg20
I20
sbg21
(g25
S'\x19\x9b\xb9\x89\xc8\xbd\xea?'
p1868
tp1869
Rp1870
tp1871
a(g1
(g2
g3
Ntp1872
Rp1873
(dp1874
g7
I128
sg8
(lp1875
g1
(g10
g3
Ntp1876
Rp1877
(dp1878
g14
(lp1879
I128
aI1
aF0.5942877974344167
aI58
aF0.31038895748615103
aI149
aI20
aF0.6552852010974544
aF0.5591357521117968
aI209
asbasg20
I20
sbg21
(g25
S' &\x83\x83\x02S\xf0?'
p1880
tp1881
Rp1882
tp1883
a(g1
(g2
g3
Ntp1884
Rp1885
(dp1886
g7
I128
sg8
(lp1887
g1
(g10
g3
Ntp1888
Rp1889
(dp1890
g14
(lp1891
I128
aI1
aF0.3824840410970365
aI51
aF0.2952352475311202
aI313
aI20
aF0.7966813309859725
aF0.9115320643625213
aI206
asbasg20
I20
sbg21
(g25
S'\x91DDZ\x95k\xe7?'
p1892
tp1893
Rp1894
tp1895
a(g1
(g2
g3
Ntp1896
Rp1897
(dp1898
g7
I128
sg8
(lp1899
g1
(g10
g3
Ntp1900
Rp1901
(dp1902
g14
(lp1903
I128
aI1
aF0.5706913281120298
aI50
aF0.35686101372426376
aI165
aI20
aF0.20639382693615305
aF0.6049208289627366
aI235
asbasg20
I20
sbg21
(g25
S'\\\x13\xcb\xa1c\x8d\xbd?'
p1904
tp1905
Rp1906
tp1907
a(g1
(g2
g3
Ntp1908
Rp1909
(dp1910
g7
I128
sg8
(lp1911
g1
(g10
g3
Ntp1912
Rp1913
(dp1914
g14
(lp1915
I128
aI1
aF0.14061587216231242
aI51
aF0.29795683730106703
aI129
aI20
aF0.5891547991173043
aF0.47850031206586874
aI315
asbasg20
I20
sbg21
(g25
S'\x14B7X\n\xdb\xe9?'
p1916
tp1917
Rp1918
tp1919
a(g1
(g2
g3
Ntp1920
Rp1921
(dp1922
g7
I128
sg8
(lp1923
g1
(g10
g3
Ntp1924
Rp1925
(dp1926
g14
(lp1927
I128
aI2
aF0.382821484294476
aI57
aF0.39766405608852073
aI383
aI20
aF0.4486805608624644
aF0.4120393488350633
aI298
asbag1
(g10
g3
Ntp1928
Rp1929
(dp1930
g14
(lp1931
I2
aI1
aF0.7942785952919319
aI48
aF0.908601673728385
aI450
aI20
aF0.053836354816061416
aF0.33150163467059957
aI334
asbasg20
I20
sbg21
(g25
S'\xbf\x93\x06\x82)\xdb\xed?'
p1932
tp1933
Rp1934
tp1935
a(g1
(g2
g3
Ntp1936
Rp1937
(dp1938
g7
I128
sg8
(lp1939
g1
(g10
g3
Ntp1940
Rp1941
(dp1942
g14
(lp1943
I128
aI8
aF0.23395257276329526
aI70
aF0.31036496052136403
aI249
aI19
aF0.17890214984522437
aF0.5490295037216338
aI384
asbag1
(g10
g3
Ntp1944
Rp1945
(dp1946
g14
(lp1947
I8
aI1
aF0.1733727871611067
aI88
aF0.24579287371135805
aI307
aI29
aF0.19319056194932593
aF0.9839183652289656
aI268
asbag1
(g10
g3
Ntp1948
Rp1949
(dp1950
g14
(lp1951
I1
aI1
aF0.6250553276692803
aI55
aF0.5406866978611975
aI407
aI47
aF0.48354316083662197
aF0.7510008272102942
aI119
asbag1
(g10
g3
Ntp1952
Rp1953
(dp1954
g14
(lp1955
I1
aI1
aF0.672287555642911
aI72
aF0.4050218288150256
aI490
aI20
aF0.3263092577460974
aF0.6555111190952826
aI379
asbasg20
I20
sbg21
(g25
S'[\x90\n\n\xa8\xdf\xc0?'
p1956
tp1957
Rp1958
tp1959
a(g1
(g2
g3
Ntp1960
Rp1961
(dp1962
g7
I128
sg8
(lp1963
g1
(g10
g3
Ntp1964
Rp1965
(dp1966
g14
(lp1967
I128
aI1
aF0.46956163552293395
aI50
aF0.5412519501002262
aI179
aI20
aF0.4158002444060903
aF0.4804038598279578
aI210
asbasg20
I20
sbg21
(g25
S'ir\xbc\xc7\xe0\xf5\xf0\xbf'
p1968
tp1969
Rp1970
tp1971
a(g1
(g2
g3
Ntp1972
Rp1973
(dp1974
g7
I128
sg8
(lp1975
g1
(g10
g3
Ntp1976
Rp1977
(dp1978
g14
(lp1979
I128
aI2
aF0.2630867880253316
aI51
aF0.2952352475311202
aI250
aI20
aF0.5891547991173043
aF0.9879035020220209
aI290
asbag1
(g10
g3
Ntp1980
Rp1981
(dp1982
g14
(lp1983
I2
aI1
aF0.8958651496935197
aI86
aF0.5350383779544103
aI64
aI20
aF0.3535245751708963
aF0.7100604100602422
aI357
asbasg20
I20
sbg21
(g25
S'\xf6Va\xbc\x82\xcc\xeb?'
p1984
tp1985
Rp1986
tp1987
a(g1
(g2
g3
Ntp1988
Rp1989
(dp1990
g7
I128
sg8
(lp1991
g1
(g10
g3
Ntp1992
Rp1993
(dp1994
g14
(lp1995
I128
aI2
aF0.4057256545634199
aI46
aF0.17453257824051516
aI247
aI39
aF0.405140276603704
aF0.18518387312210935
aI214
asbag1
(g10
g3
Ntp1996
Rp1997
(dp1998
g14
(lp1999
I2
aI1
aF0.7776814091621861
aI82
aF0.6302351472440432
aI358
aI47
aF0.3104405971863903
aF0.8655878891823784
aI306
asbag1
(g10
g3
Ntp2000
Rp2001
(dp2002
g14
(lp2003
I1
aI1
aF0.571331381014901
aI75
aF0.12003688272854496
aI287
aI34
aF0.7133411834792718
aF0.3525286054386543
aI336
asbag1
(g10
g3
Ntp2004
Rp2005
(dp2006
g14
(lp2007
I1
aI1
aF0.36525922677075495
aI91
aF0.22616182497864767
aI345
aI20
aF0.5852820033259224
aF0.41404833301957733
aI461
asbasg20
I20
sbg21
(g25
S'\xd1\x84\xc4\xe3\xd6\x96\xe1?'
p2008
tp2009
Rp2010
tp2011
a(g1
(g2
g3
Ntp2012
Rp2013
(dp2014
g7
I128
sg8
(lp2015
g1
(g10
g3
Ntp2016
Rp2017
(dp2018
g14
(lp2019
I128
aI1
aF0.20012143787449121
aI68
aF0.476938133493767
aI293
aI24
aF0.527343243377228
aF0.6982819591877887
aI201
asbag1
(g10
g3
Ntp2020
Rp2021
(dp2022
g14
(lp2023
I1
aI1
aF0.41611036229740483
aI58
aF0.4911198435758505
aI309
aI20
aF0.20550407404824056
aF0.829027398333049
aI155
asbasg20
I20
sbg21
(g25
S'\x94\xab\xfaccG\xfb\xbf'
p2024
tp2025
Rp2026
tp2027
a(g1
(g2
g3
Ntp2028
Rp2029
(dp2030
g7
I128
sg8
(lp2031
g1
(g10
g3
Ntp2032
Rp2033
(dp2034
g14
(lp2035
I128
aI1
aF0.38219830584039804
aI69
aF0.2724553798944487
aI46
aI83
aF0.39241130939074254
aF0.6571876407618785
aI167
asbag1
(g10
g3
Ntp2036
Rp2037
(dp2038
g14
(lp2039
I1
aI1
aF0.43859675443049245
aI36
aF0.5072110881689403
aI308
aI42
aF0.8707680896965757
aF0.531325966327764
aI345
asbag1
(g10
g3
Ntp2040
Rp2041
(dp2042
g14
(lp2043
I1
aI1
aF0.5193401193575653
aI79
aF0.727162092297269
aI281
aI20
aF0.3864601626028644
aF0.854568073542438
aI479
asbasg20
I20
sbg21
(g25
S'\x13\xd0\x85\x94\xe2c\xe5\xbf'
p2044
tp2045
Rp2046
tp2047
a(g1
(g2
g3
Ntp2048
Rp2049
(dp2050
g7
I128
sg8
(lp2051
g1
(g10
g3
Ntp2052
Rp2053
(dp2054
g14
(lp2055
I128
aI1
aF0.29280868324069476
aI53
aF0.17252844241440038
aI164
aI20
aF0.47840657105827955
aF0.2784264741648461
aI216
asbasg20
I20
sbg21
(g25
S'\xcb\x89[\x0c1p\xff?'
p2056
tp2057
Rp2058
tp2059
a(g1
(g2
g3
Ntp2060
Rp2061
(dp2062
g7
I128
sg8
(lp2063
g1
(g10
g3
Ntp2064
Rp2065
(dp2066
g14
(lp2067
I128
aI1
aF0.10846889957286357
aI69
aF0.10157981683757644
aI194
aI14
aF0.5284290976942815
aF0.05309016476786832
aI195
asbag1
(g10
g3
Ntp2068
Rp2069
(dp2070
g14
(lp2071
I1
aI1
aF0.41611036229740483
aI58
aF0.4911198435758505
aI309
aI20
aF0.20550407404824056
aF0.829027398333049
aI155
asbasg20
I20
sbg21
(g25
S'\xee\x13\xb4\xbf\xe8\xad\xf5?'
p2072
tp2073
Rp2074
tp2075
a(g1
(g2
g3
Ntp2076
Rp2077
(dp2078
g7
I128
sg8
(lp2079
g1
(g10
g3
Ntp2080
Rp2081
(dp2082
g14
(lp2083
I128
aI4
aF0.4205126941196703
aI90
aF0.675556285174896
aI411
aI50
aF0.17163859080065758
aF0.26374578171261287
aI310
asbag1
(g10
g3
Ntp2084
Rp2085
(dp2086
g14
(lp2087
I4
aI1
aF0.6729157220937882
aI27
aF0.10798069233107033
aI322
aI9
aF0.39410698674186706
aF0.58005202205061
aI364
asbag1
(g10
g3
Ntp2088
Rp2089
(dp2090
g14
(lp2091
I1
aI1
aF0.06307489446591008
aI16
aF0.7100668324633533
aI119
aI20
aF0.3221652642441568
aF0.2833911315190386
aI262
asbasg20
I20
sbg21
(g25
S'\xa7\x11\xf7\x98\xae\xb3\xf0\xbf'
p2092
tp2093
Rp2094
tp2095
a(g1
(g2
g3
Ntp2096
Rp2097
(dp2098
g7
I128
sg8
(lp2099
g1
(g10
g3
Ntp2100
Rp2101
(dp2102
g14
(lp2103
I128
aI1
aF0.3778947522555966
aI55
aF0.33764523389007073
aI240
aI20
aF0.5990574789683834
aF0.12244695278643514
aI354
asbasg20
I20
sbg21
(g25
S'@\xf5aL\xdc,\xf0?'
p2104
tp2105
Rp2106
tp2107
a(g1
(g2
g3
Ntp2108
Rp2109
(dp2110
g7
I128
sg8
(lp2111
g1
(g10
g3
Ntp2112
Rp2113
(dp2114
g14
(lp2115
I128
aI1
aF0.8776935789687685
aI55
aF0.2346865026346812
aI428
aI20
aF0.6359497444026265
aF0.5603680434692164
aI272
asbasg20
I20
sbg21
(g25
S'fK\xa6eb5\x00@'
p2116
tp2117
Rp2118
tp2119
a(g1
(g2
g3
Ntp2120
Rp2121
(dp2122
g7
I128
sg8
(lp2123
g1
(g10
g3
Ntp2124
Rp2125
(dp2126
g14
(lp2127
I128
aI1
aF0.48143414650701033
aI68
aF0.7976688520878369
aI122
aI20
aF0.19051966511579876
aF0.5564888351842321
aI277
asbasg20
I20
sbg21
(g25
S'\xa5\xa1W\xbbB"\xf4?'
p2128
tp2129
Rp2130
tp2131
a(g1
(g2
g3
Ntp2132
Rp2133
(dp2134
g7
I128
sg8
(lp2135
g1
(g10
g3
Ntp2136
Rp2137
(dp2138
g14
(lp2139
I128
aI1
aF0.5182215975125328
aI86
aF0.6123397262926521
aI332
aI38
aF0.30077635618091136
aF0.6748682162824771
aI244
asbag1
(g10
g3
Ntp2140
Rp2141
(dp2142
g14
(lp2143
I1
aI1
aF0.413786609263237
aI75
aF0.4537628277121906
aI445
aI19
aF0.20304498978825875
aF0.6680818589326041
aI420
asbag1
(g10
g3
Ntp2144
Rp2145
(dp2146
g14
(lp2147
I1
aI1
aF0.3910745600116864
aI54
aF0.9962404898013515
aI416
aI20
aF0.9520772726052056
aF0.6657620593328359
aI134
asbasg20
I20
sbg21
(g25
S'\xbc\x0b\xbaaAc\xbc\xbf'
p2148
tp2149
Rp2150
tp2151
a(g1
(g2
g3
Ntp2152
Rp2153
(dp2154
g7
I128
sg8
(lp2155
g1
(g10
g3
Ntp2156
Rp2157
(dp2158
g14
(lp2159
I128
aI1
aF0.03658673069066698
aI56
aF0.3688082995516645
aI152
aI20
aF0.3573197616164671
aF0.4617996161061717
aI171
asbasg20
I20
sbg21
(g25
S'\x10\x9a\x94\xb5hD\xe3?'
p2160
tp2161
Rp2162
tp2163
a(g1
(g2
g3
Ntp2164
Rp2165
(dp2166
g7
I128
sg8
(lp2167
g1
(g10
g3
Ntp2168
Rp2169
(dp2170
g14
(lp2171
I128
aI1
aF0.8483540325880123
aI65
aF0.0643511764543368
aI20
aI84
aF0.4863124186684127
aF0.5822176924352963
aI258
asbag1
(g10
g3
Ntp2172
Rp2173
(dp2174
g14
(lp2175
I1
aI1
aF0.9070331253495246
aI72
aF0.6918195155447204
aI200
aI20
aF0.9044402824848898
aF0.823560092170588
aI319
asbasg20
I20
sbg21
(g25
S'\xd6\xaau\x94\xdfB\xed?'
p2176
tp2177
Rp2178
tp2179
a(g1
(g2
g3
Ntp2180
Rp2181
(dp2182
g7
I128
sg8
(lp2183
g1
(g10
g3
Ntp2184
Rp2185
(dp2186
g14
(lp2187
I128
aI2
aF0.7289718569096442
aI61
aF0.11800261956174318
aI451
aI28
aF0.7058280147243725
aF0.4788995645277333
aI317
asbag1
(g10
g3
Ntp2188
Rp2189
(dp2190
g14
(lp2191
I2
aI1
aF0.2600557960272252
aI47
aF0.2545802489730471
aI244
aI20
aF0.355165044816844
aF0.5981945886801969
aI282
asbasg20
I20
sbg21
(g25
S'\xf9\x184>\xb1\xc8\xf2?'
p2192
tp2193
Rp2194
tp2195
a(g1
(g2
g3
Ntp2196
Rp2197
(dp2198
g7
I128
sg8
(lp2199
g1
(g10
g3
Ntp2200
Rp2201
(dp2202
g14
(lp2203
I128
aI1
aF0.8351221681238333
aI53
aF0.6087623247642548
aI244
aI20
aF0.5055867866979858
aF0.6908392000965767
aI321
asbasg20
I20
sbg21
(g25
S'\xe1\\\x84\xda\x93\x04\xf1?'
p2204
tp2205
Rp2206
tp2207
a(g1
(g2
g3
Ntp2208
Rp2209
(dp2210
g7
I128
sg8
(lp2211
g1
(g10
g3
Ntp2212
Rp2213
(dp2214
g14
(lp2215
I128
aI1
aF0.31261948264302747
aI88
aF0.1182260944333724
aI73
aI20
aF0.2780235778600287
aF0.41740640867334217
aI307
asbasg20
I20
sbg21
(g25
S'l +(\t\x8f\xf5?'
p2216
tp2217
Rp2218
tp2219
a(g1
(g2
g3
Ntp2220
Rp2221
(dp2222
g7
I128
sg8
(lp2223
g1
(g10
g3
Ntp2224
Rp2225
(dp2226
g14
(lp2227
I128
aI1
aF0.48930978109238144
aI33
aF0.2980814817986728
aI106
aI52
aF0.13002704174878832
aF0.6005601467984876
aI231
asbag1
(g10
g3
Ntp2228
Rp2229
(dp2230
g14
(lp2231
I1
aI1
aF0.6482551298447481
aI35
aF0.2028272737682156
aI263
aI20
aF0.7392745960567926
aF0.6302669680870481
aI280
asbasg20
I20
sbg21
(g25
S'\xab\xf1\n\xbdg\xfb\xf4?'
p2232
tp2233
Rp2234
tp2235
a(g1
(g2
g3
Ntp2236
Rp2237
(dp2238
g7
I128
sg8
(lp2239
g1
(g10
g3
Ntp2240
Rp2241
(dp2242
g14
(lp2243
I128
aI64
aF0.8590360953268742
aI57
aF0.08513290592104361
aI329
aI75
aF0.01500904906803835
aF0.8362395950877524
aI104
asbag1
(g10
g3
Ntp2244
Rp2245
(dp2246
g14
(lp2247
I64
aI1
aF0.8574928646021585
aI13
aF0.07571695828937142
aI335
aI89
aF0.652852727310514
aF0.9397403158472862
aI57
asbag1
(g10
g3
Ntp2248
Rp2249
(dp2250
g14
(lp2251
I1
aI1
aF0.413786609263237
aI75
aF0.4537628277121906
aI445
aI19
aF0.20304498978825875
aF0.6680818589326041
aI293
asbag1
(g10
g3
Ntp2252
Rp2253
(dp2254
g14
(lp2255
I1
aI1
aF0.3910745600116864
aI54
aF0.9962404898013515
aI416
aI20
aF0.9520772726052056
aF0.6657620593328359
aI134
asbasg20
I20
sbI-50
tp2256
a(g1
(g2
g3
Ntp2257
Rp2258
(dp2259
g7
I128
sg8
(lp2260
g1
(g10
g3
Ntp2261
Rp2262
(dp2263
g14
(lp2264
I128
aI8
aF0.29411352921179146
aI45
aF0.4198468505107538
aI245
aI20
aF0.683392350725241
aF0.7219872114672956
aI257
asbag1
(g10
g3
Ntp2265
Rp2266
(dp2267
g14
(lp2268
I8
aI1
aF0.7918000087900252
aI18
aF0.5151239372960453
aI343
aI20
aF0.9525261913637348
aF0.05182143659522298
aI112
asbasg20
I20
sbg21
(g25
S'\xe4\xaeq\x11\xe6h\xea\xbf'
p2269
tp2270
Rp2271
tp2272
a(g1
(g2
g3
Ntp2273
Rp2274
(dp2275
g7
I128
sg8
(lp2276
g1
(g10
g3
Ntp2277
Rp2278
(dp2279
g14
(lp2280
I128
aI16
aF0.5060260538148005
aI41
aF0.26381132467524726
aI247
aI20
aF0.37481963890880643
aF0.4200538624459077
aI155
asbag1
(g10
g3
Ntp2281
Rp2282
(dp2283
g14
(lp2284
I16
aI1
aF0.984517249682584
aI28
aF0.21283309425855823
aI496
aI20
aF0.1507933515481119
aF0.2954233319272941
aI455
asbasg20
I20
sbg21
(g25
S'\xc7\xbd<Bl\x84\xea\xbf'
p2285
tp2286
Rp2287
tp2288
a(g1
(g2
g3
Ntp2289
Rp2290
(dp2291
g7
I128
sg8
(lp2292
g1
(g10
g3
Ntp2293
Rp2294
(dp2295
g14
(lp2296
I128
aI1
aF0.14061587216231242
aI51
aF0.29795683730106703
aI234
aI20
aF0.5891547991173043
aF0.47850031206586874
aI176
asbasg20
I20
sbg21
(g25
S'gX\xc0~\x970\xfc?'
p2297
tp2298
Rp2299
tp2300
a(g1
(g2
g3
Ntp2301
Rp2302
(dp2303
g7
I128
sg8
(lp2304
g1
(g10
g3
Ntp2305
Rp2306
(dp2307
g14
(lp2308
I128
aI1
aF0.1935337464846998
aI81
aF0.3465161782934114
aI55
aI91
aF0.5043313637212544
aF0.01692069686472497
aI481
asbag1
(g10
g3
Ntp2309
Rp2310
(dp2311
g14
(lp2312
I1
aI1
aF0.0733782204612351
aI94
aF0.558504820515011
aI366
aI20
aF0.3368027711282352
aF0.48597099369321883
aI149
asbasg20
I20
sbg21
(g25
S'tC\xa6\x02\t\x13\xf3\xbf'
p2313
tp2314
Rp2315
tp2316
a(g1
(g2
g3
Ntp2317
Rp2318
(dp2319
g7
I128
sg8
(lp2320
g1
(g10
g3
Ntp2321
Rp2322
(dp2323
g14
(lp2324
I128
aI1
aF0.5098780339607759
aI31
aF0.24066975233033894
aI245
aI91
aF0.12203360212470604
aF0.2653286363436897
aI205
asbag1
(g10
g3
Ntp2325
Rp2326
(dp2327
g14
(lp2328
I1
aI1
aF0.7820155508472335
aI61
aF0.2706352211046835
aI74
aI20
aF0.9281931550721003
aF0.7932983527072552
aI173
asbasg20
I20
sbg21
(g25
S'z\x83\x9f\xf9%\xf6\xf8?'
p2329
tp2330
Rp2331
tp2332
a(g1
(g2
g3
Ntp2333
Rp2334
(dp2335
g7
I128
sg8
(lp2336
g1
(g10
g3
Ntp2337
Rp2338
(dp2339
g14
(lp2340
I128
aI1
aF0.6214200445353553
aI61
aF0.08182378634704268
aI122
aI42
aF0.3069536091051083
aF0.6695476644163605
aI281
asbag1
(g10
g3
Ntp2341
Rp2342
(dp2343
g14
(lp2344
I1
aI1
aF0.9892366525960372
aI12
aF0.6666224026349645
aI450
aI20
aF0.08325061291858116
aF0.5956133432855271
aI331
asbasg20
I20
sbg21
(g25
S'\x7f\xca\xc5\xe5D;\xf5?'
p2345
tp2346
Rp2347
tp2348
a(g1
(g2
g3
Ntp2349
Rp2350
(dp2351
g7
I128
sg8
(lp2352
g1
(g10
g3
Ntp2353
Rp2354
(dp2355
g14
(lp2356
I128
aI1
aF0.2493129131506245
aI56
aF0.5391272645510954
aI396
aI20
aF0.5705006235676688
aF0.6232955217948787
aI266
asbasg20
I20
sbg21
(g25
S'R\xed\x7f\x07\x82k\xe2\xbf'
p2357
tp2358
Rp2359
tp2360
a(g1
(g2
g3
Ntp2361
Rp2362
(dp2363
g7
I128
sg8
(lp2364
g1
(g10
g3
Ntp2365
Rp2366
(dp2367
g14
(lp2368
I128
aI32
aF0.6820151070406356
aI40
aF0.2169451230466718
aI140
aI7
aF0.5728782169584783
aF0.0018699984115015944
aI336
asbag1
(g10
g3
Ntp2369
Rp2370
(dp2371
g14
(lp2372
I32
aI1
aF0.6612160393565285
aI51
aF0.4398284349330557
aI277
aI20
aF0.6810908913484217
aF0.4592984546193118
aI263
asbasg20
I20
sbg21
(g25
S'F+r{\xa2,\xd4\xbf'
p2373
tp2374
Rp2375
tp2376
a(g1
(g2
g3
Ntp2377
Rp2378
(dp2379
g7
I128
sg8
(lp2380
g1
(g10
g3
Ntp2381
Rp2382
(dp2383
g14
(lp2384
I128
aI2
aF0.028699472381449986
aI32
aF0.2169451230466718
aI421
aI73
aF0.8515007611709268
aF0.5312765558795391
aI59
asbag1
(g10
g3
Ntp2385
Rp2386
(dp2387
g14
(lp2388
I2
aI1
aF0.7936970019872127
aI26
aF0.15818346217135282
aI305
aI57
aF0.08824807338664131
aF0.24813532996145415
aI265
asbag1
(g10
g3
Ntp2389
Rp2390
(dp2391
g14
(lp2392
I1
aI1
aF0.573496638808555
aI62
aF0.44101713816780597
aI147
aI20
aF0.6206200221646652
aF0.3076974600204099
aI319
asbasg20
I20
sbg21
(g25
S'\x84\xd7\xabh6\x96\xda?'
p2393
tp2394
Rp2395
tp2396
a(g1
(g2
g3
Ntp2397
Rp2398
(dp2399
g7
I128
sg8
(lp2400
g1
(g10
g3
Ntp2401
Rp2402
(dp2403
g14
(lp2404
I128
aI4
aF0.8274881589363214
aI81
aF0.05478051941164197
aI497
aI73
aF0.20605269109183644
aF0.15658251483903918
aI435
asbag1
(g10
g3
Ntp2405
Rp2406
(dp2407
g14
(lp2408
I4
aI1
aF0.6699080870024012
aI79
aF0.5497120059020841
aI314
aI36
aF0.46069784291461885
aF0.55113629627518
aI269
asbag1
(g10
g3
Ntp2409
Rp2410
(dp2411
g14
(lp2412
I1
aI1
aF0.06576827783996331
aI55
aF0.9717916584458722
aI247
aI20
aF0.04556117568975626
aF0.8849652025161501
aI315
asbasg20
I20
sbg21
(g25
S'\xbdS\xcd\xad\xf6\\\xd3?'
p2413
tp2414
Rp2415
tp2416
a(g1
(g2
g3
Ntp2417
Rp2418
(dp2419
g7
I128
sg8
(lp2420
g1
(g10
g3
Ntp2421
Rp2422
(dp2423
g14
(lp2424
I128
aI4
aF0.7202377895569156
aI55
aF0.19824372169153592
aI114
aI36
aF0.03043617866823911
aF0.47185883916107885
aI189
asbag1
(g10
g3
Ntp2425
Rp2426
(dp2427
g14
(lp2428
I4
aI1
aF0.19819004045223076
aI99
aF0.8553065450039081
aI143
aI10
aF0.10359616852838915
aF0.4567211904544951
aI310
asbag1
(g10
g3
Ntp2429
Rp2430
(dp2431
g14
(lp2432
I1
aI1
aF0.950565272871627
aI28
aF0.5708155789984594
aI173
aI20
aF0.7524061548701256
aF0.2386993985999235
aI453
asbasg20
I20
sbg21
(g25
S'Dr\xbf\x84\xe5\x97\xf7?'
p2433
tp2434
Rp2435
tp2436
a(g1
(g2
g3
Ntp2437
Rp2438
(dp2439
g7
I128
sg8
(lp2440
g1
(g10
g3
Ntp2441
Rp2442
(dp2443
g14
(lp2444
I128
aI1
aF0.672319777136502
aI69
aF0.7186887764430177
aI208
aI20
aF0.5854330917283025
aF0.3755289819204966
aI325
asbasg20
I20
sbg21
(g25
S'\x0f\n\xdcN7i\xd7?'
p2445
tp2446
Rp2447
tp2448
a(g1
(g2
g3
Ntp2449
Rp2450
(dp2451
g7
I128
sg8
(lp2452
g1
(g10
g3
Ntp2453
Rp2454
(dp2455
g14
(lp2456
I128
aI1
aF0.13478396734782772
aI77
aF0.24066975233033894
aI245
aI32
aF0.1898900132903919
aF0.2653286363436897
aI205
asbag1
(g10
g3
Ntp2457
Rp2458
(dp2459
g14
(lp2460
I1
aI1
aF0.7159059692762801
aI90
aF0.4129820518979528
aI90
aI36
aF0.09468258051817313
aF0.42788792539205434
aI202
asbag1
(g10
g3
Ntp2461
Rp2462
(dp2463
g14
(lp2464
I1
aI1
aF0.6482551298447481
aI35
aF0.5530851210981798
aI293
aI20
aF0.7392745960567926
aF0.6302669680870481
aI280
asbasg20
I20
sbg21
(g25
S'\x99\xa6V\xe9\x06\x18\xf5?'
p2465
tp2466
Rp2467
tp2468
a(g1
(g2
g3
Ntp2469
Rp2470
(dp2471
g7
I128
sg8
(lp2472
g1
(g10
g3
Ntp2473
Rp2474
(dp2475
g14
(lp2476
I128
aI2
aF0.6762299471878241
aI56
aF0.034843789904122846
aI211
aI70
aF0.8498333014559786
aF0.5910954242753782
aI256
asbag1
(g10
g3
Ntp2477
Rp2478
(dp2479
g14
(lp2480
I2
aI2
aF0.46591611314802195
aI16
aF0.9787284350689219
aI255
aI28
aF0.4930706054501208
aF0.2742807611527316
aI387
asbag1
(g10
g3
Ntp2481
Rp2482
(dp2483
g14
(lp2484
I2
aI1
aF0.6966393801603139
aI62
aF0.40006402326131574
aI371
aI20
aF0.2598218278169091
aF0.5995455158680545
aI375
asbasg20
I20
sbg21
(g25
S'\xd9.\xe7(\x16\xbf\xf7?'
p2485
tp2486
Rp2487
tp2488
a(g1
(g2
g3
Ntp2489
Rp2490
(dp2491
g7
I128
sg8
(lp2492
g1
(g10
g3
Ntp2493
Rp2494
(dp2495
g14
(lp2496
I128
aI1
aF0.6512631664924732
aI78
aF0.31342868080832637
aI422
aI56
aF0.5299362305398341
aF0.5470080818442244
aI306
asbag1
(g10
g3
Ntp2497
Rp2498
(dp2499
g14
(lp2500
I1
aI1
aF0.266157765929079
aI50
aF0.5159924499746332
aI134
aI20
aF0.4198428018610253
aF0.7256487299565982
aI246
asbasg20
I20
sbg21
(g25
S'#\x9ej {\x9f\xf0\xbf'
p2501
tp2502
Rp2503
tp2504
a(g1
(g2
g3
Ntp2505
Rp2506
(dp2507
g7
I128
sg8
(lp2508
g1
(g10
g3
Ntp2509
Rp2510
(dp2511
g14
(lp2512
I128
aI4
aF0.060516845922231055
aI92
aF0.4589091201817165
aI169
aI38
aF0.9295447609380334
aF0.8308360175463
aI473
asbag1
(g10
g3
Ntp2513
Rp2514
(dp2515
g14
(lp2516
I4
aI2
aF0.7112347168223802
aI59
aF0.6985231590461899
aI233
aI20
aF0.27722264152794146
aF0.6607892255181899
aI222
asbag1
(g10
g3
Ntp2517
Rp2518
(dp2519
g14
(lp2520
I2
aI1
aF0.44685099698075514
aI18
aF0.058793283671427554
aI26
aI20
aF0.38060008471834783
aF0.28640020265227684
aI383
asbasg20
I20
sbg21
(g25
S'\xd0\x90\xb5\xd5\xce\x87\xc9\xbf'
p2521
tp2522
Rp2523
tp2524
a(g1
(g2
g3
Ntp2525
Rp2526
(dp2527
g7
I128
sg8
(lp2528
g1
(g10
g3
Ntp2529
Rp2530
(dp2531
g14
(lp2532
I128
aI64
aF0.4918874161967216
aI59
aF0.32361311133258586
aI227
aI45
aF0.29112166748516477
aF0.5490648673282741
aI251
asbag1
(g10
g3
Ntp2533
Rp2534
(dp2535
g14
(lp2536
I64
aI1
aF0.8569951587845195
aI53
aF0.2323960062382684
aI199
aI91
aF0.01988569630381798
aF0.8616700785802487
aI230
asbag1
(g10
g3
Ntp2537
Rp2538
(dp2539
g14
(lp2540
I1
aI1
aF0.7206507084770646
aI27
aF0.16057718016839662
aI180
aI20
aF0.8669971158916426
aF0.5313497005010174
aI319
asbasg20
I20
sbI-50
tp2541
a(g1
(g2
g3
Ntp2542
Rp2543
(dp2544
g7
I128
sg8
(lp2545
g1
(g10
g3
Ntp2546
Rp2547
(dp2548
g14
(lp2549
I128
aI1
aF0.5434472273618622
aI33
aF0.2071718123638402
aI34
aI83
aF0.11097673150724685
aF0.6656092899960563
aI81
asbag1
(g10
g3
Ntp2550
Rp2551
(dp2552
g14
(lp2553
I1
aI1
aF0.7612270059748292
aI44
aF0.45342965484854086
aI269
aI20
aF0.57000486589294
aF0.6214559286649393
aI394
asbasg20
I20
sbg21
(g25
S'\x179\x86m\x8dV\x00@'
p2554
tp2555
Rp2556
tp2557
a(g1
(g2
g3
Ntp2558
Rp2559
(dp2560
g7
I128
sg8
(lp2561
g1
(g10
g3
Ntp2562
Rp2563
(dp2564
g14
(lp2565
I128
aI4
aF0.8069884036543081
aI81
aF0.286519422175612
aI55
aI23
aF0.5051267512576842
aF0.01692069686472497
aI345
asbag1
(g10
g3
Ntp2566
Rp2567
(dp2568
g14
(lp2569
I4
aI1
aF0.05671214742698105
aI22
aF0.740140598938604
aI188
aI40
aF0.8015340630634736
aF0.7421480874677614
aI312
asbag1
(g10
g3
Ntp2570
Rp2571
(dp2572
g14
(lp2573
I1
aI1
aF0.0733782204612351
aI94
aF0.6607959367364353
aI411
aI20
aF0.6902596962080979
aF0.3154346607531212
aI56
asbasg20
I20
sbg21
(g25
S'\x95\x90K/\\!\xf4\xbf'
p2574
tp2575
Rp2576
tp2577
a(g1
(g2
g3
Ntp2578
Rp2579
(dp2580
g7
I128
sg8
(lp2581
g1
(g10
g3
Ntp2582
Rp2583
(dp2584
g14
(lp2585
I128
aI1
aF0.4237991751501825
aI32
aF0.39766405608852073
aI206
aI20
aF0.34801746875593237
aF0.4120393488350633
aI298
asbasg20
I20
sbg21
(g25
S'\xbe\xffO:W\xdb\xf3?'
p2586
tp2587
Rp2588
tp2589
a(g1
(g2
g3
Ntp2590
Rp2591
(dp2592
g7
I128
sg8
(lp2593
g1
(g10
g3
Ntp2594
Rp2595
(dp2596
g14
(lp2597
I128
aI4
aF0.8594532901183154
aI17
aF0.19911267917569675
aI114
aI35
aF0.8617821187856267
aF0.6619057570641947
aI302
asbag1
(g10
g3
Ntp2598
Rp2599
(dp2600
g14
(lp2601
I4
aI1
aF0.19106296183309457
aI44
aF0.17654654427055227
aI160
aI29
aF0.6518356528883256
aF0.7800297683715444
aI347
asbag1
(g10
g3
Ntp2602
Rp2603
(dp2604
g14
(lp2605
I1
aI1
aF0.8265729957724962
aI84
aF0.9445358407775246
aI55
aI20
aF0.45519583552368836
aF0.7437151722203121
aI387
asbasg20
I20
sbg21
(g25
S'\xcc6\xa6\xa3)\xeb\xf3?'
p2606
tp2607
Rp2608
tp2609
a(g1
(g2
g3
Ntp2610
Rp2611
(dp2612
g7
I128
sg8
(lp2613
g1
(g10
g3
Ntp2614
Rp2615
(dp2616
g14
(lp2617
I128
aI1
aF0.7823702220929657
aI84
aF0.2862329670241608
aI90
aI33
aF0.49432127093018763
aF0.7809349387854946
aI147
asbag1
(g10
g3
Ntp2618
Rp2619
(dp2620
g14
(lp2621
I1
aI1
aF0.4636841408873328
aI47
aF0.3483225350778533
aI252
aI20
aF0.4114343411761212
aF0.41303375943255494
aI251
asbasg20
I20
sbg21
(g25
S'z\x187\x0c\x82g\xf4?'
p2622
tp2623
Rp2624
tp2625
a(g1
(g2
g3
Ntp2626
Rp2627
(dp2628
g7
I128
sg8
(lp2629
g1
(g10
g3
Ntp2630
Rp2631
(dp2632
g14
(lp2633
I128
aI1
aF0.3604152419464537
aI72
aF0.2822337831432798
aI278
aI44
aF0.5020128211495638
aF0.6037946779302313
aI460
asbag1
(g10
g3
Ntp2634
Rp2635
(dp2636
g14
(lp2637
I1
aI1
aF0.35384957328314914
aI54
aF0.9962404898013515
aI416
aI20
aF0.9520772726052056
aF0.6657620593328359
aI48
asbasg20
I20
sbg21
(g25
S'\xac\x1a\xe3\xb4\xf9\x9e\xe5?'
p2638
tp2639
Rp2640
tp2641
a(g1
(g2
g3
Ntp2642
Rp2643
(dp2644
g7
I128
sg8
(lp2645
g1
(g10
g3
Ntp2646
Rp2647
(dp2648
g14
(lp2649
I128
aI2
aF0.6762299471878241
aI14
aF0.034843789904122846
aI247
aI70
aF0.7909836726647689
aF0.543456862269817
aI15
asbag1
(g10
g3
Ntp2650
Rp2651
(dp2652
g14
(lp2653
I2
aI1
aF0.5496688710888971
aI43
aF0.7933402460015155
aI170
aI36
aF0.3706475835466333
aF0.5281535697492339
aI143
asbag1
(g10
g3
Ntp2654
Rp2655
(dp2656
g14
(lp2657
I1
aI1
aF0.8881408274678794
aI27
aF0.05626739438209016
aI427
aI20
aF0.9919724968380911
aF0.8494961976372658
aI242
asbasg20
I20
sbg21
(g25
S'\x00\x00\x00\x00\x00\x00\x00\xc0'
p2658
tp2659
Rp2660
tp2661
a(g1
(g2
g3
Ntp2662
Rp2663
(dp2664
g7
I128
sg8
(lp2665
g1
(g10
g3
Ntp2666
Rp2667
(dp2668
g14
(lp2669
I128
aI1
aF0.4910041038896819
aI38
aF0.3405077760347745
aI273
aI20
aF0.47652062119238714
aF0.9220213089755469
aI122
asbasg20
I20
sbg21
(g25
S'5k\xf0\xb1\x15V\xe6?'
p2670
tp2671
Rp2672
tp2673
a(g1
(g2
g3
Ntp2674
Rp2675
(dp2676
g7
I128
sg8
(lp2677
g1
(g10
g3
Ntp2678
Rp2679
(dp2680
g14
(lp2681
I128
aI1
aF0.201851330093822
aI51
aF0.2965960424160936
aI242
aI20
aF0.5891547991173043
aF0.695016188214195
aI233
asbasg20
I20
sbg21
(g25
S'\x9d\x8c\xb3\xef\x8a\x1a\xfa?'
p2682
tp2683
Rp2684
tp2685
a(g1
(g2
g3
Ntp2686
Rp2687
(dp2688
g7
I128
sg8
(lp2689
g1
(g10
g3
Ntp2690
Rp2691
(dp2692
g14
(lp2693
I128
aI1
aF0.8354015312142713
aI41
aF0.38452965034499764
aI143
aI20
aF0.36807673264338486
aF0.5064700272182707
aI281
asbasg20
I20
sbg21
(g25
S'\xe4\t\x817D3\xfb?'
p2694
tp2695
Rp2696
tp2697
a(g1
(g2
g3
Ntp2698
Rp2699
(dp2700
g7
I128
sg8
(lp2701
g1
(g10
g3
Ntp2702
Rp2703
(dp2704
g14
(lp2705
I128
aI1
aF0.8712861295564422
aI94
aF0.2829415028239062
aI162
aI76
aF0.24939559273538123
aF0.41421967909108137
aI171
asbag1
(g10
g3
Ntp2706
Rp2707
(dp2708
g14
(lp2709
I1
aI1
aF0.28521502960244594
aI46
aF0.24555546857479238
aI22
aI20
aF0.3578933616587163
aF0.19838538659792482
aI250
asbasg20
I20
sbg21
(g25
S'\x06UZ\xc4.>\xfb?'
p2710
tp2711
Rp2712
tp2713
a(g1
(g2
g3
Ntp2714
Rp2715
(dp2716
g7
I128
sg8
(lp2717
g1
(g10
g3
Ntp2718
Rp2719
(dp2720
g14
(lp2721
I128
aI1
aF0.3932033935611582
aI59
aF0.1367808284070383
aI246
aI61
aF0.35829571528105486
aF0.5490383625331756
aI461
asbag1
(g10
g3
Ntp2722
Rp2723
(dp2724
g14
(lp2725
I1
aI1
aF0.38379172167537445
aI99
aF0.03497737472671625
aI63
aI20
aF0.6921642727371359
aF0.2144316123119726
aI337
asbasg20
I20
sbg21
(g25
S'\xb45\\\x16@J\xf2?'
p2726
tp2727
Rp2728
tp2729
a(g1
(g2
g3
Ntp2730
Rp2731
(dp2732
g7
I128
sg8
(lp2733
g1
(g10
g3
Ntp2734
Rp2735
(dp2736
g14
(lp2737
I128
aI1
aF0.19155001945004002
aI75
aF0.6659653701755531
aI4
aI29
aF0.5737266638904612
aF0.12602764524001642
aI254
asbag1
(g10
g3
Ntp2738
Rp2739
(dp2740
g14
(lp2741
I1
aI1
aF0.2418742073016663
aI89
aF0.9464944959066002
aI236
aI20
aF0.4563616136937242
aF0.2809177071191018
aI261
asbasg20
I20
sbg21
(g25
S'\x1d\x82-\x07z\x88\xe5?'
p2742
tp2743
Rp2744
tp2745
a(g1
(g2
g3
Ntp2746
Rp2747
(dp2748
g7
I128
sg8
(lp2749
g1
(g10
g3
Ntp2750
Rp2751
(dp2752
g14
(lp2753
I128
aI1
aF0.6962580797007093
aI39
aF0.32922725303016864
aI196
aI44
aF0.2883836667940581
aF0.8168562958197868
aI161
asbag1
(g10
g3
Ntp2754
Rp2755
(dp2756
g14
(lp2757
I1
aI1
aF0.35384957328314914
aI71
aF0.7070723697697704
aI497
aI20
aF0.011780174966323997
aF0.1477156312394129
aI177
asbasg20
I20
sbg21
(g25
S'\xd9\xc9*w_\xd3\xc1?'
p2758
tp2759
Rp2760
tp2761
a(g1
(g2
g3
Ntp2762
Rp2763
(dp2764
g7
I128
sg8
(lp2765
g1
(g10
g3
Ntp2766
Rp2767
(dp2768
g14
(lp2769
I128
aI1
aF0.5434472273618622
aI74
aF0.2071718123638402
aI232
aI83
aF0.11097673150724685
aF0.6656092899960563
aI81
asbag1
(g10
g3
Ntp2770
Rp2771
(dp2772
g14
(lp2773
I1
aI1
aF0.617375411475211
aI17
aF0.3504526975056963
aI294
aI61
aF0.5721960992032502
aF0.6157826230850167
aI290
asbag1
(g10
g3
Ntp2774
Rp2775
(dp2776
g14
(lp2777
I1
aI1
aF0.5832480808027836
aI21
aF0.033318718848009854
aI216
aI20
aF0.4213531242034442
aF0.2144316123119726
aI247
asbasg20
I20
sbg21
(g25
S'\xb6\xcapM\xe0s\x02@'
p2778
tp2779
Rp2780
tp2781
a(g1
(g2
g3
Ntp2782
Rp2783
(dp2784
g7
I128
sg8
(lp2785
g1
(g10
g3
Ntp2786
Rp2787
(dp2788
g14
(lp2789
I128
aI1
aF0.29161197205172956
aI73
aF0.7731114842695882
aI222
aI20
aF0.5794990881514783
aF0.4650555204142196
aI246
asbasg20
I20
sbg21
(g25
S"\t:\xab\x8f'\x18\xf0\xbf"
p2790
tp2791
Rp2792
tp2793
a(g1
(g2
g3
Ntp2794
Rp2795
(dp2796
g7
I128
sg8
(lp2797
g1
(g10
g3
Ntp2798
Rp2799
(dp2800
g14
(lp2801
I128
aI16
aF0.25091485386292645
aI68
aF0.2071718123638402
aI34
aI83
aF0.6384224743167747
aF0.6656092899960563
aI81
asbag1
(g10
g3
Ntp2802
Rp2803
(dp2804
g14
(lp2805
I16
aI1
aF0.8836025089961804
aI71
aF0.2879923509419128
aI407
aI101
aF0.8359630120440913
aF0.8316393392834522
aI481
asbag1
(g10
g3
Ntp2806
Rp2807
(dp2808
g14
(lp2809
I1
aI1
aF0.5340934199167015
aI67
aF0.4738437397057088
aI138
aI20
aF0.6389462137704306
aF0.5969066598160742
aI140
asbasg20
I20
sbI-50
tp2810
a(g1
(g2
g3
Ntp2811
Rp2812
(dp2813
g7
I128
sg8
(lp2814
g1
(g10
g3
Ntp2815
Rp2816
(dp2817
g14
(lp2818
I128
aI1
aF0.47943614975691007
aI56
aF0.47939521363976256
aI146
aI20
aF0.35547857817542156
aF0.8668022645805677
aI90
asbasg20
I20
sbg21
(g25
S'v\xa2\xaa\n\xe3<\xed?'
p2819
tp2820
Rp2821
tp2822
a(g1
(g2
g3
Ntp2823
Rp2824
(dp2825
g7
I128
sg8
(lp2826
g1
(g10
g3
Ntp2827
Rp2828
(dp2829
g14
(lp2830
I128
aI1
aF0.7753425824733501
aI57
aF0.466362827951512
aI240
aI20
aF0.5932697591168301
aF0.955077412550519
aI321
asbasg20
I20
sbg21
(g25
S'\x85\x9fL\xe5ho\xe2?'
p2831
tp2832
Rp2833
tp2834
a(g1
(g2
g3
Ntp2835
Rp2836
(dp2837
g7
I128
sg8
(lp2838
g1
(g10
g3
Ntp2839
Rp2840
(dp2841
g14
(lp2842
I128
aI1
aF0.3707701489819204
aI56
aF0.29142469231082474
aI240
aI20
aF0.3529129438920886
aF0.3114522296009523
aI69
asbasg20
I20
sbg21
(g25
S'v\x05M\xe2\xe8\xd8\xef?'
p2843
tp2844
Rp2845
tp2846
a(g1
(g2
g3
Ntp2847
Rp2848
(dp2849
g7
I128
sg8
(lp2850
g1
(g10
g3
Ntp2851
Rp2852
(dp2853
g14
(lp2854
I128
aI1
aF0.24013645235143433
aI90
aF0.4491291330868318
aI156
aI89
aF0.9418073294688749
aF0.17520892173538394
aI300
asbag1
(g10
g3
Ntp2855
Rp2856
(dp2857
g14
(lp2858
I1
aI1
aF0.2383820690653755
aI67
aF0.6556062510082312
aI409
aI20
aF0.018482787701776804
aF0.40065608242591355
aI132
asbasg20
I20
sbg21
(g25
S'tZ_#GZ\xe9?'
p2859
tp2860
Rp2861
tp2862
a(g1
(g2
g3
Ntp2863
Rp2864
(dp2865
g7
I128
sg8
(lp2866
g1
(g10
g3
Ntp2867
Rp2868
(dp2869
g14
(lp2870
I128
aI16
aF0.8483540325880123
aI82
aF0.36578533306543204
aI101
aI17
aF0.9455902310591555
aF0.5822176924352963
aI169
asbag1
(g10
g3
Ntp2871
Rp2872
(dp2873
g14
(lp2874
I16
aI1
aF0.2937721320828214
aI70
aF0.9986279959237165
aI241
aI6
aF0.9410189808248088
aF0.014243406859840935
aI314
asbag1
(g10
g3
Ntp2875
Rp2876
(dp2877
g14
(lp2878
I1
aI1
aF0.3606859992024152
aI31
aF0.42628515281409524
aI409
aI13
aF0.0876999251312125
aF0.9172969474068501
aI281
asbag1
(g10
g3
Ntp2879
Rp2880
(dp2881
g14
(lp2882
I1
aI1
aF0.38995163750248807
aI51
aF0.6331897948972833
aI429
aI20
aF0.6855233250748051
aF0.8886272469117094
aI490
asbasg20
I20
sbI-50
tp2883
a(g1
(g2
g3
Ntp2884
Rp2885
(dp2886
g7
I128
sg8
(lp2887
g1
(g10
g3
Ntp2888
Rp2889
(dp2890
g14
(lp2891
I128
aI1
aF0.16908302321805802
aI94
aF0.2169451230466718
aI421
aI58
aF0.44441135045230507
aF0.4464043466944304
aI70
asbag1
(g10
g3
Ntp2892
Rp2893
(dp2894
g14
(lp2895
I1
aI1
aF0.5329846189443768
aI88
aF0.0942815349104307
aI313
aI20
aF0.2622153432216483
aF0.21427383844344128
aI164
asbasg20
I20
sbg21
(g25
S'\x8aG:z\xa5\x1c\xf5?'
p2896
tp2897
Rp2898
tp2899
a(g1
(g2
g3
Ntp2900
Rp2901
(dp2902
g7
I128
sg8
(lp2903
g1
(g10
g3
Ntp2904
Rp2905
(dp2906
g14
(lp2907
I128
aI1
aF0.7274017371595565
aI61
aF0.11114554870014198
aI165
aI69
aF0.4676545610811351
aF0.8160368523060415
aI208
asbag1
(g10
g3
Ntp2908
Rp2909
(dp2910
g14
(lp2911
I1
aI1
aF0.7183229121767012
aI31
aF0.7370373852726627
aI255
aI20
aF0.5081674730771572
aF0.4993242141525328
aI185
asbasg20
I20
sbg21
(g25
S'&\xe6q\xd7#V\xf0?'
p2912
tp2913
Rp2914
tp2915
a(g1
(g2
g3
Ntp2916
Rp2917
(dp2918
g7
I128
sg8
(lp2919
g1
(g10
g3
Ntp2920
Rp2921
(dp2922
g14
(lp2923
I128
aI1
aF0.8150944878752573
aI52
aF0.18673339752589815
aI496
aI20
aF0.9650564219564631
aF0.5314955004184795
aI210
asbasg20
I20
sbg21
(g25
S'\x12^\xedi\x8f=\xf0?'
p2924
tp2925
Rp2926
tp2927
a(g1
(g2
g3
Ntp2928
Rp2929
(dp2930
g7
I128
sg8
(lp2931
g1
(g10
g3
Ntp2932
Rp2933
(dp2934
g14
(lp2935
I128
aI1
aF0.19217809533518526
aI65
aF0.32398249182159317
aI296
aI34
aF0.5242227511020643
aF0.33788027746577887
aI328
asbag1
(g10
g3
Ntp2936
Rp2937
(dp2938
g14
(lp2939
I1
aI1
aF0.6409407138459428
aI14
aF0.7506052744524855
aI250
aI20
aF0.8113269091839252
aF0.8965280104093246
aI159
asbasg20
I20
sbg21
(g25
S'\x12\x9a\xadN=\x95\xe6?'
p2940
tp2941
Rp2942
tp2943
a(g1
(g2
g3
Ntp2944
Rp2945
(dp2946
g7
I128
sg8
(lp2947
g1
(g10
g3
Ntp2948
Rp2949
(dp2950
g14
(lp2951
I128
aI1
aF0.15159030117610273
aI43
aF0.1183902815630905
aI326
aI23
aF0.33529834693355576
aF0.6485481371039882
aI79
asbag1
(g10
g3
Ntp2952
Rp2953
(dp2954
g14
(lp2955
I1
aI1
aF0.7342870134352548
aI72
aF0.7950020363772725
aI382
aI20
aF0.36902783495667857
aF0.07412918687563752
aI189
asbasg20
I20
sbg21
(g25
S'\x1e\xb8\x7f)\xb6\xd9\xf0?'
p2956
tp2957
Rp2958
tp2959
a(g1
(g2
g3
Ntp2960
Rp2961
(dp2962
g7
I128
sg8
(lp2963
g1
(g10
g3
Ntp2964
Rp2965
(dp2966
g14
(lp2967
I128
aI1
aF0.03574802271722288
aI38
aF0.2715794245833537
aI52
aI36
aF0.9117119881838777
aF0.39583086687496605
aI285
asbag1
(g10
g3
Ntp2968
Rp2969
(dp2970
g14
(lp2971
I1
aI1
aF0.8149703566340405
aI27
aF0.16057718016839662
aI180
aI20
aF0.8669971158916426
aF0.4694765373815222
aI319
asbasg20
I20
sbg21
(g25
S'=\tL\x91K\r\xfa?'
p2972
tp2973
Rp2974
tp2975
a(g1
(g2
g3
Ntp2976
Rp2977
(dp2978
g7
I128
sg8
(lp2979
g1
(g10
g3
Ntp2980
Rp2981
(dp2982
g14
(lp2983
I128
aI1
aF0.3987578742674274
aI51
aF0.38619663765152806
aI92
aI65
aF0.7955556709413412
aF0.37090484723251765
aI211
asbag1
(g10
g3
Ntp2984
Rp2985
(dp2986
g14
(lp2987
I1
aI1
aF0.7635641493503341
aI55
aF0.7731220629522015
aI86
aI20
aF0.718715935553886
aF0.6881385883463189
aI459
asbasg20
I20
sbg21
(g25
S'7k\x07\x0em\xcc\xf6?'
p2988
tp2989
Rp2990
tp2991
a(g1
(g2
g3
Ntp2992
Rp2993
(dp2994
g7
I128
sg8
(lp2995
g1
(g10
g3
Ntp2996
Rp2997
(dp2998
g14
(lp2999
I128
aI1
aF0.6669470100132031
aI97
aF0.5062468835107206
aI447
aI71
aF0.034351977879306994
aF0.36345744947918435
aI189
asbag1
(g10
g3
Ntp3000
Rp3001
(dp3002
g14
(lp3003
I1
aI1
aF0.7470062501167446
aI30
aF0.1397592926275737
aI315
aI51
aF0.021574074332414983
aF0.1412467133959372
aI225
asbag1
(g10
g3
Ntp3004
Rp3005
(dp3006
g14
(lp3007
I1
aI1
aF0.7372116635023672
aI15
aF0.4738437397057088
aI35
aI20
aF0.8420645108775274
aF0.026752827020671166
aI482
asbasg20
I20
sbg21
(g25
S'\xe8\xfb<\x9eg\x8a\xd3\xbf'
p3008
tp3009
Rp3010
tp3011
a(g1
(g2
g3
Ntp3012
Rp3013
(dp3014
g7
I128
sg8
(lp3015
g1
(g10
g3
Ntp3016
Rp3017
(dp3018
g14
(lp3019
I128
aI1
aF0.8415341629880622
aI36
aF0.6472862348532294
aI327
aI70
aF0.648637417040991
aF0.06386477415090985
aI411
asbag1
(g10
g3
Ntp3020
Rp3021
(dp3022
g14
(lp3023
I1
aI1
aF0.19803213377342732
aI30
aF0.22616182497864767
aI345
aI20
aF0.682302468737772
aF0.41404833301957733
aI460
asbasg20
I20
sbg21
(g25
S'\xe5@\x08\xef\xac\xad\xf2\xbf'
p3024
tp3025
Rp3026
tp3027
a(g1
(g2
g3
Ntp3028
Rp3029
(dp3030
g7
I128
sg8
(lp3031
g1
(g10
g3
Ntp3032
Rp3033
(dp3034
g14
(lp3035
I128
aI1
aF0.8483540325880123
aI37
aF0.0643511764543368
aI236
aI7
aF0.9455902310591555
aF0.5822176924352963
aI279
asbag1
(g10
g3
Ntp3036
Rp3037
(dp3038
g14
(lp3039
I1
aI1
aF0.3606859992024152
aI68
aF0.42628515281409524
aI409
aI13
aF0.4829779859901978
aF0.46286481476866803
aI427
asbag1
(g10
g3
Ntp3040
Rp3041
(dp3042
g14
(lp3043
I1
aI1
aF0.3352346389727008
aI46
aF0.5546197068201503
aI338
aI20
aF0.6151291371255017
aF0.6543405546788086
aI244
asbasg20
I20
sbg21
(g25
S'\t\xa5\xe5\x9d\xff\x95\xff?'
p3044
tp3045
Rp3046
tp3047
a(g1
(g2
g3
Ntp3048
Rp3049
(dp3050
g7
I128
sg8
(lp3051
g1
(g10
g3
Ntp3052
Rp3053
(dp3054
g14
(lp3055
I128
aI2
aF0.10475626659408477
aI44
aF0.034843789904122846
aI211
aI88
aF0.9924185877043534
aF0.7840660397786557
aI256
asbag1
(g10
g3
Ntp3056
Rp3057
(dp3058
g14
(lp3059
I2
aI2
aF0.8005624921330944
aI16
aF0.08101574432507785
aI255
aI28
aF0.4930706054501208
aF0.7576083731576743
aI387
asbag1
(g10
g3
Ntp3060
Rp3061
(dp3062
g14
(lp3063
I2
aI1
aF0.8845759538279271
aI49
aF0.7050795294941682
aI449
aI19
aF0.3716597467074032
aF0.2509202301939004
aI248
asbag1
(g10
g3
Ntp3064
Rp3065
(dp3066
g14
(lp3067
I1
aI1
aF0.3253263028910396
aI19
aF0.9388168798751568
aI238
aI20
aF0.47451039950099694
aF0.37674321642408604
aI23
asbasg20
I20
sbg21
(g25
S'\x92A\x03o\x07\xc8\xf3\xbf'
p3068
tp3069
Rp3070
tp3071
a(g1
(g2
g3
Ntp3072
Rp3073
(dp3074
g7
I128
sg8
(lp3075
g1
(g10
g3
Ntp3076
Rp3077
(dp3078
g14
(lp3079
I128
aI1
aF0.8590360953268742
aI57
aF0.07391534225927587
aI307
aI75
aF0.5173971381703902
aF0.8362395950877524
aI403
asbag1
(g10
g3
Ntp3080
Rp3081
(dp3082
g14
(lp3083
I1
aI1
aF0.672287555642911
aI39
aF0.59909504395955
aI490
aI20
aF0.3263092577460974
aF0.6555111190952826
aI413
asbasg20
I20
sbg21
(g25
S'\xa6\x90L\x13oX\x01@'
p3084
tp3085
Rp3086
tp3087
a(g1
(g2
g3
Ntp3088
Rp3089
(dp3090
g7
I128
sg8
(lp3091
g1
(g10
g3
Ntp3092
Rp3093
(dp3094
g14
(lp3095
I128
aI1
aF0.03680674729365063
aI29
aF0.12450084892492519
aI402
aI48
aF0.7704219243441
aF0.5938419191829664
aI350
asbag1
(g10
g3
Ntp3096
Rp3097
(dp3098
g14
(lp3099
I1
aI1
aF0.4767800982444851
aI44
aF0.2467323693136093
aI324
aI20
aF0.3107636614565429
aF0.6846261381027441
aI350
asbasg20
I20
sbg21
(g25
S'\xbf|P\xa9\x98\xc9\xf3?'
p3100
tp3101
Rp3102
tp3103
a(g1
(g2
g3
Ntp3104
Rp3105
(dp3106
g7
I128
sg8
(lp3107
g1
(g10
g3
Ntp3108
Rp3109
(dp3110
g14
(lp3111
I128
aI1
aF0.5434472273618622
aI33
aF0.2212055286895771
aI202
aI83
aF0.6895540390371858
aF0.6656092899960563
aI81
asbag1
(g10
g3
Ntp3112
Rp3113
(dp3114
g14
(lp3115
I1
aI1
aF0.42353968859914726
aI67
aF0.4738437397057088
aI53
aI20
aF0.8420645108775274
aF0.16037851754187327
aI159
asbasg20
I20
sbg21
(g25
S'\xa2\x95l\xa7\xdf\xe4\xfa?'
p3116
tp3117
Rp3118
tp3119
a(g1
(g2
g3
Ntp3120
Rp3121
(dp3122
g7
I128
sg8
(lp3123
g1
(g10
g3
Ntp3124
Rp3125
(dp3126
g14
(lp3127
I128
aI2
aF0.5655448210093443
aI67
aF0.33198345751873715
aI228
aI71
aF0.4969866117576961
aF0.7236995561097949
aI459
asbag1
(g10
g3
Ntp3128
Rp3129
(dp3130
g14
(lp3131
I2
aI1
aF0.23395257276329526
aI70
aF0.860614166033191
aI249
aI20
aF0.17890214984522437
aF0.5490295037216338
aI384
asbasg20
I20
sbg21
(g25
S'\x9ci\x13\x0e\xc7&\xea?'
p3132
tp3133
Rp3134
tp3135
a(g1
(g2
g3
Ntp3136
Rp3137
(dp3138
g7
I128
sg8
(lp3139
g1
(g10
g3
Ntp3140
Rp3141
(dp3142
g14
(lp3143
I128
aI1
aF0.43852629538927845
aI68
aF0.11988635411302029
aI319
aI46
aF0.6414646177469747
aF0.40521273034108674
aI244
asbag1
(g10
g3
Ntp3144
Rp3145
(dp3146
g14
(lp3147
I1
aI1
aF0.5063383077614464
aI91
aF0.009691622344934814
aI21
aI20
aF0.9829621323801994
aF0.41404833301957733
aI461
asbasg20
I20
sbg21
(g25
S'\xf0\xd1\x93\x9c\x18%\xd0\xbf'
p3148
tp3149
Rp3150
tp3151
a(g1
(g2
g3
Ntp3152
Rp3153
(dp3154
g7
I128
sg8
(lp3155
g1
(g10
g3
Ntp3156
Rp3157
(dp3158
g14
(lp3159
I128
aI1
aF0.5942877974344167
aI92
aF0.9601985528545217
aI149
aI20
aF0.4546116153380515
aF0.5591357521117968
aI57
asbasg20
I20
sbg21
(g25
S'\x9d\x99u\x9d\x05\x85\xb6?'
p3160
tp3161
Rp3162
tp3163
a(g1
(g2
g3
Ntp3164
Rp3165
(dp3166
g7
I128
sg8
(lp3167
g1
(g10
g3
Ntp3168
Rp3169
(dp3170
g14
(lp3171
I128
aI1
aF0.3824840410970365
aI51
aF0.0835974650991621
aI308
aI20
aF0.7966813309859725
aF0.9115320643625213
aI206
asbasg20
I20
sbg21
(g25
S'\x14[iY>\xc9\xfd?'
p3172
tp3173
Rp3174
tp3175
a(g1
(g2
g3
Ntp3176
Rp3177
(dp3178
g7
I128
sg8
(lp3179
g1
(g10
g3
Ntp3180
Rp3181
(dp3182
g14
(lp3183
I128
aI1
aF0.4823905586186649
aI60
aF0.16082119823137997
aI454
aI20
aF0.27604238554303306
aF0.47933899853019873
aI259
asbasg20
I20
sbg21
(g25
S'h\x88\xd0\x80\xb0\xb1\xf4?'
p3184
tp3185
Rp3186
tp3187
a(g1
(g2
g3
Ntp3188
Rp3189
(dp3190
g7
I128
sg8
(lp3191
g1
(g10
g3
Ntp3192
Rp3193
(dp3194
g14
(lp3195
I128
aI1
aF0.14061587216231242
aI51
aF0.29795683730106703
aI129
aI20
aF0.5891547991173043
aF0.5891522348988562
aI315
asbasg20
I20
sbg21
(g25
S'~5\x1a\xbf>\x89\xf3?'
p3196
tp3197
Rp3198
tp3199
a(g1
(g2
g3
Ntp3200
Rp3201
(dp3202
g7
I128
sg8
(lp3203
g1
(g10
g3
Ntp3204
Rp3205
(dp3206
g14
(lp3207
I128
aI1
aF0.019645064598441953
aI57
aF0.39766405608852073
aI383
aI20
aF0.4486805608624644
aF0.3295830617050387
aI298
asbasg20
I20
sbg21
(g25
S'\x90I\xfe%\x19\xb6\xe2?'
p3208
tp3209
Rp3210
tp3211
a(g1
(g2
g3
Ntp3212
Rp3213
(dp3214
g7
I128
sg8
(lp3215
g1
(g10
g3
Ntp3216
Rp3217
(dp3218
g14
(lp3219
I128
aI1
aF0.23395257276329526
aI70
aF0.31036496052136403
aI249
aI19
aF0.17890214984522437
aF0.9301455200775063
aI384
asbag1
(g10
g3
Ntp3220
Rp3221
(dp3222
g14
(lp3223
I1
aI1
aF0.5344250798400171
aI55
aF0.5406866978611975
aI407
aI6
aF0.48354316083662197
aF0.7510008272102942
aI81
asbag1
(g10
g3
Ntp3224
Rp3225
(dp3226
g14
(lp3227
I1
aI1
aF0.672287555642911
aI72
aF0.4050218288150256
aI83
aI20
aF0.6641193653021429
aF0.6555111190952826
aI154
asbasg20
I20
sbg21
(g25
S'\xac\xb9M>\x85\xd8\xf1\xbf'
p3228
tp3229
Rp3230
tp3231
a(g1
(g2
g3
Ntp3232
Rp3233
(dp3234
g7
I128
sg8
(lp3235
g1
(g10
g3
Ntp3236
Rp3237
(dp3238
g14
(lp3239
I128
aI1
aF0.12818690488392692
aI54
aF0.31870023439685313
aI284
aI36
aF0.6593750570590616
aF0.2635671021838176
aI58
asbag1
(g10
g3
Ntp3240
Rp3241
(dp3242
g14
(lp3243
I1
aI1
aF0.5006273146400004
aI47
aF0.3015444159091428
aI74
aI20
aF0.7706153244380662
aF0.7932983527072552
aI189
asbasg20
I20
sbg21
(g25
S'\x94\xe7l\x0e\xc9R\xeb?'
p3244
tp3245
Rp3246
tp3247
a(g1
(g2
g3
Ntp3248
Rp3249
(dp3250
g7
I128
sg8
(lp3251
g1
(g10
g3
Ntp3252
Rp3253
(dp3254
g14
(lp3255
I128
aI2
aF0.2630867880253316
aI51
aF0.2952352475311202
aI250
aI11
aF0.5891547991173043
aF0.5724135580484975
aI147
asbag1
(g10
g3
Ntp3256
Rp3257
(dp3258
g14
(lp3259
I2
aI1
aF0.8958651496935197
aI52
aF0.5350383779544103
aI64
aI20
aF0.2818542303659871
aF0.3413057578109139
aI357
asbasg20
I20
sbg21
(g25
S'6\xe1)\xf4A$\xf8?'
p3260
tp3261
Rp3262
tp3263
a(g1
(g2
g3
Ntp3264
Rp3265
(dp3266
g7
I128
sg8
(lp3267
g1
(g10
g3
Ntp3268
Rp3269
(dp3270
g14
(lp3271
I128
aI1
aF0.4057256545634199
aI46
aF0.17453257824051516
aI247
aI39
aF0.405140276603704
aF0.893539549021314
aI214
asbag1
(g10
g3
Ntp3272
Rp3273
(dp3274
g14
(lp3275
I1
aI1
aF0.571331381014901
aI75
aF0.18582319807017866
aI287
aI34
aF0.7133411834792718
aF0.3525286054386543
aI470
asbag1
(g10
g3
Ntp3276
Rp3277
(dp3278
g14
(lp3279
I1
aI1
aF0.36525922677075495
aI91
aF0.17743398176495306
aI345
aI20
aF0.5635655854135317
aF0.41404833301957733
aI461
asbasg20
I20
sbg21
(g25
S'Z(EV\x84\x81\xfa\xbf'
p3280
tp3281
Rp3282
tp3283
a(g1
(g2
g3
Ntp3284
Rp3285
(dp3286
g7
I128
sg8
(lp3287
g1
(g10
g3
Ntp3288
Rp3289
(dp3290
g14
(lp3291
I128
aI1
aF0.2583969817927173
aI87
aF0.3098892986090971
aI312
aI27
aF0.7961919464215967
aF0.6181432533601561
aI361
asbag1
(g10
g3
Ntp3292
Rp3293
(dp3294
g14
(lp3295
I1
aI1
aF0.41611036229740483
aI69
aF0.4911198435758505
aI309
aI20
aF0.014864496095236213
aF0.9470291806604999
aI155
asbasg20
I20
sbg21
(g25
S'\xf0\xd8\xb1\xdb}2\xe9?'
p3296
tp3297
Rp3298
tp3299
a(g1
(g2
g3
Ntp3300
Rp3301
(dp3302
g7
I128
sg8
(lp3303
g1
(g10
g3
Ntp3304
Rp3305
(dp3306
g14
(lp3307
I128
aI1
aF0.4286168665828487
aI69
aF0.9592649640857612
aI46
aI83
aF0.39241130939074254
aF0.7052377447910385
aI167
asbag1
(g10
g3
Ntp3308
Rp3309
(dp3310
g14
(lp3311
I1
aI1
aF0.43859675443049245
aI36
aF0.2619122056219356
aI398
aI42
aF0.8707680896965757
aF0.7538187700392598
aI207
asbag1
(g10
g3
Ntp3312
Rp3313
(dp3314
g14
(lp3315
I1
aI1
aF0.5193401193575653
aI20
aF0.7082611105844777
aI324
aI20
aF0.38110063381929227
aF0.854568073542438
aI479
asbasg20
I20
sbg21
(g25
S'v\x01!"|\xa3\xf8\xbf'
p3316
tp3317
Rp3318
tp3319
a(g1
(g2
g3
Ntp3320
Rp3321
(dp3322
g7
I128
sg8
(lp3323
g1
(g10
g3
Ntp3324
Rp3325
(dp3326
g14
(lp3327
I128
aI1
aF0.47596761458241776
aI56
aF0.29142469231082474
aI159
aI20
aF0.35916094505751267
aF0.3836723437830206
aI189
asbasg20
I20
sbg21
(g25
S'\x86/\xfe\x89\xf2_\xfa?'
p3328
tp3329
Rp3330
tp3331
a(g1
(g2
g3
Ntp3332
Rp3333
(dp3334
g7
I128
sg8
(lp3335
g1
(g10
g3
Ntp3336
Rp3337
(dp3338
g14
(lp3339
I128
aI1
aF0.10846889957286357
aI69
aF0.76267905285888
aI194
aI27
aF0.47949843827062244
aF0.3625913739609829
aI187
asbag1
(g10
g3
Ntp3340
Rp3341
(dp3342
g14
(lp3343
I1
aI1
aF0.45893354769218264
aI82
aF0.030280455074685464
aI309
aI20
aF0.20550407404824056
aF0.022723411234725877
aI155
asbasg20
I20
sbg21
(g25
S'\xce\xd4r\x87\xee\x83\xc9?'
p3344
tp3345
Rp3346
tp3347
a(g1
(g2
g3
Ntp3348
Rp3349
(dp3350
g7
I128
sg8
(lp3351
g1
(g10
g3
Ntp3352
Rp3353
(dp3354
g14
(lp3355
I128
aI1
aF0.7948992288318947
aI67
aF0.5490920518164787
aI411
aI50
aF0.31865081378228766
aF0.019053929084251076
aI310
asbag1
(g10
g3
Ntp3356
Rp3357
(dp3358
g14
(lp3359
I1
aI1
aF0.5373509205602874
aI16
aF0.7100668324633533
aI119
aI20
aF0.3221652642441568
aF0.9338623816711265
aI394
asbasg20
I20
sbg21
(g25
S'\x84\xcb\xadKYs\xd8?'
p3360
tp3361
Rp3362
tp3363
a(g1
(g2
g3
Ntp3364
Rp3365
(dp3366
g7
I128
sg8
(lp3367
g1
(g10
g3
Ntp3368
Rp3369
(dp3370
g14
(lp3371
I128
aI1
aF0.33279167326369175
aI81
aF0.15780626809620096
aI62
aI20
aF0.3045112929195154
aF0.21640947037740388
aI295
asbasg20
I20
sbg21
(g25
S'\xf5\x10\x8dx_\xb6\xf6?'
p3372
tp3373
Rp3374
tp3375
a(g1
(g2
g3
Ntp3376
Rp3377
(dp3378
g7
I128
sg8
(lp3379
g1
(g10
g3
Ntp3380
Rp3381
(dp3382
g14
(lp3383
I128
aI1
aF0.05166322216882557
aI100
aF0.6148241636885351
aI174
aI20
aF0.05744542394595986
aF0.5603680434692164
aI249
asbasg20
I20
sbg21
(g25
S'\xb9A\x98\xac\x98\t\xe2?'
p3384
tp3385
Rp3386
tp3387
a(g1
(g2
g3
Ntp3388
Rp3389
(dp3390
g7
I128
sg8
(lp3391
g1
(g10
g3
Ntp3392
Rp3393
(dp3394
g14
(lp3395
I128
aI1
aF0.3026322958463703
aI78
aF0.6593931868945966
aI155
aI20
aF0.21520123639749078
aF0.5992010751043901
aI126
asbasg20
I20
sbg21
(g25
S'\x8d%5\xf6\xfa\x93\xf3?'
p3396
tp3397
Rp3398
tp3399
a(g1
(g2
g3
Ntp3400
Rp3401
(dp3402
g7
I128
sg8
(lp3403
g1
(g10
g3
Ntp3404
Rp3405
(dp3406
g14
(lp3407
I128
aI1
aF0.4438677838541621
aI75
aF0.1510390144838577
aI410
aI41
aF0.18394089434599514
aF0.6298262105629017
aI89
asbag1
(g10
g3
Ntp3408
Rp3409
(dp3410
g14
(lp3411
I1
aI1
aF0.28014570082699075
aI75
aF0.4537628277121906
aI445
aI19
aF0.20304498978825875
aF0.9266657807251472
aI420
asbag1
(g10
g3
Ntp3412
Rp3413
(dp3414
g14
(lp3415
I1
aI1
aF0.4286334717429776
aI54
aF0.9962404898013515
aI416
aI20
aF0.9381552990927844
aF0.9424810539618198
aI134
asbasg20
I20
sbg21
(g25
S'\x1e=\xf5+\xa08\x02@'
p3416
tp3417
Rp3418
tp3419
a(g1
(g2
g3
Ntp3420
Rp3421
(dp3422
g7
I128
sg8
(lp3423
g1
(g10
g3
Ntp3424
Rp3425
(dp3426
g14
(lp3427
I128
aI1
aF0.6469950909570559
aI56
aF0.3688082995516645
aI316
aI20
aF0.3573197616164671
aF0.4879449715244114
aI171
asbasg20
I20
sbg21
(g25
S'\xc8\xf0\xd1_\x06\xd5\xfa?'
p3428
tp3429
Rp3430
tp3431
a(g1
(g2
g3
Ntp3432
Rp3433
(dp3434
g7
I128
sg8
(lp3435
g1
(g10
g3
Ntp3436
Rp3437
(dp3438
g14
(lp3439
I128
aI1
aF0.8483540325880123
aI93
aF0.1660977801068505
aI303
aI84
aF0.4863124186684127
aF0.5822176924352963
aI212
asbag1
(g10
g3
Ntp3440
Rp3441
(dp3442
g14
(lp3443
I1
aI1
aF0.9070331253495246
aI72
aF0.6918195155447204
aI200
aI20
aF0.9044402824848898
aF0.823560092170588
aI222
asbasg20
I20
sbg21
(g25
S'2\xc0\xd1\xcb\xfa\x90\xfe?'
p3444
tp3445
Rp3446
tp3447
a(g1
(g2
g3
Ntp3448
Rp3449
(dp3450
g7
I128
sg8
(lp3451
g1
(g10
g3
Ntp3452
Rp3453
(dp3454
g14
(lp3455
I128
aI2
aF0.7289718569096442
aI61
aF0.11800261956174318
aI436
aI39
aF0.7058280147243725
aF0.4788995645277333
aI317
asbag1
(g10
g3
Ntp3456
Rp3457
(dp3458
g14
(lp3459
I2
aI1
aF0.3909089030578236
aI57
aF0.2636050293713018
aI172
aI26
aF0.2121270359803986
aF0.9479111954332974
aI340
asbag1
(g10
g3
Ntp3460
Rp3461
(dp3462
g14
(lp3463
I1
aI1
aF0.1292026889966268
aI95
aF0.24555546857479238
aI23
aI20
aF0.07039983545158046
aF0.2936350219927987
aI224
asbasg20
I20
sbg21
(g25
S'<\xb1\x13;\xb1\x13\xf3\xbf'
p3464
tp3465
Rp3466
tp3467
a(g1
(g2
g3
Ntp3468
Rp3469
(dp3470
g7
I128
sg8
(lp3471
g1
(g10
g3
Ntp3472
Rp3473
(dp3474
g14
(lp3475
I128
aI1
aF0.5586775375014126
aI56
aF0.1481301136150336
aI146
aI20
aF0.35547857817542156
aF0.9879824955577524
aI154
asbasg20
I20
sbg21
(g25
S'\xa3\x1a\xccX\xa2(\x01@'
p3476
tp3477
Rp3478
tp3479
a(g1
(g2
g3
Ntp3480
Rp3481
(dp3482
g7
I128
sg8
(lp3483
g1
(g10
g3
Ntp3484
Rp3485
(dp3486
g14
(lp3487
I128
aI1
aF0.9908742916636604
aI88
aF0.7167381763567018
aI459
aI20
aF0.6475355612219208
aF0.07799813503102826
aI470
asbasg20
I20
sbg21
(g25
S'\xec0\xc4FA\x85\xee\xbf'
p3488
tp3489
Rp3490
tp3491
a(g1
(g2
g3
Ntp3492
Rp3493
(dp3494
g7
I128
sg8
(lp3495
g1
(g10
g3
Ntp3496
Rp3497
(dp3498
g14
(lp3499
I128
aI1
aF0.48930978109238144
aI33
aF0.9320536556925498
aI106
aI19
aF0.13002704174878832
aF0.6005601467984876
aI3
asbag1
(g10
g3
Ntp3500
Rp3501
(dp3502
g14
(lp3503
I1
aI1
aF0.6482551298447481
aI35
aF0.5462560259561665
aI263
aI20
aF0.5180507573327559
aF0.6302669680870481
aI95
asbasg20
I20
sbg21
(g25
S'\x00\x00\x00\x00\x00\x00\x00\xc0'
p3504
tp3505
Rp3506
tp3507
a(g1
(g2
g3
Ntp3508
Rp3509
(dp3510
g7
I128
sg8
(lp3511
g1
(g10
g3
Ntp3512
Rp3513
(dp3514
g14
(lp3515
I128
aI1
aF0.8240061599245991
aI56
aF0.08513290592104361
aI329
aI23
aF0.01500904906803835
aF0.8362395950877524
aI14
asbag1
(g10
g3
Ntp3516
Rp3517
(dp3518
g14
(lp3519
I1
aI1
aF0.413786609263237
aI75
aF0.6411863817390736
aI445
aI28
aF0.20304498978825875
aF0.14166998915837126
aI293
asbag1
(g10
g3
Ntp3520
Rp3521
(dp3522
g14
(lp3523
I1
aI1
aF0.3910745600116864
aI54
aF0.43639786856896245
aI470
aI20
aF0.7708845699301241
aF0.6136635673811557
aI340
asbasg20
I20
sbg21
(g25
S'\x00\x00\x00\x00\x00\x00\x00\xc0'
p3524
tp3525
Rp3526
tp3527
a(g1
(g2
g3
Ntp3528
Rp3529
(dp3530
g7
I128
sg8
(lp3531
g1
(g10
g3
Ntp3532
Rp3533
(dp3534
g14
(lp3535
I128
aI1
aF0.29411352921179146
aI45
aF0.03518014255989366
aI437
aI20
aF0.683392350725241
aF0.7219872114672956
aI291
asbasg20
I20
sbg21
(g25
S'&\xbck\x0c\rt\xf7?'
p3536
tp3537
Rp3538
tp3539
a(g1
(g2
g3
Ntp3540
Rp3541
(dp3542
g7
I128
sg8
(lp3543
g1
(g10
g3
Ntp3544
Rp3545
(dp3546
g14
(lp3547
I128
aI1
aF0.5060260538148005
aI41
aF0.26381132467524726
aI247
aI20
aF0.37481963890880643
aF0.5339905819743704
aI50
asbasg20
I20
sbg21
(g25
S'\x8c\x1d\xbfW"\xc8\xec?'
p3548
tp3549
Rp3550
tp3551
a(g1
(g2
g3
Ntp3552
Rp3553
(dp3554
g7
I128
sg8
(lp3555
g1
(g10
g3
Ntp3556
Rp3557
(dp3558
g14
(lp3559
I128
aI1
aF0.8778576650872112
aI44
aF0.9575489761511642
aI234
aI20
aF0.0937187893056124
aF0.47850031206586874
aI176
asbasg20
I20
sbg21
(g25
S'\x92\xf0FS\xe7\xd7\xfe\xbf'
p3560
tp3561
Rp3562
tp3563
a(g1
(g2
g3
Ntp3564
Rp3565
(dp3566
g7
I128
sg8
(lp3567
g1
(g10
g3
Ntp3568
Rp3569
(dp3570
g14
(lp3571
I128
aI1
aF0.3291273169342835
aI46
aF0.5168694024612046
aI218
aI45
aF0.5590941274990253
aF0.17744503742655054
aI290
asbag1
(g10
g3
Ntp3572
Rp3573
(dp3574
g14
(lp3575
I1
aI1
aF0.0733782204612351
aI94
aF0.558504820515011
aI200
aI20
aF0.009618654980448671
aF0.772045957961049
aI149
asbasg20
I20
sbg21
(g25
S'\xb9\xf5\xd4\x07\xc5\x7f\xe5\xbf'
p3576
tp3577
Rp3578
tp3579
a(g1
(g2
g3
Ntp3580
Rp3581
(dp3582
g7
I128
sg8
(lp3583
g1
(g10
g3
Ntp3584
Rp3585
(dp3586
g14
(lp3587
I128
aI1
aF0.6459467924040048
aI46
aF0.6260463809947123
aI159
aI20
aF0.512798428626225
aF0.31459296188124536
aI189
asbasg20
I20
sbg21
(g25
S'\xf1\xc1,Q\x83\x8b\xba\xbf'
p3588
tp3589
Rp3590
tp3591
a(g1
(g2
g3
Ntp3592
Rp3593
(dp3594
g7
I128
sg8
(lp3595
g1
(g10
g3
Ntp3596
Rp3597
(dp3598
g14
(lp3599
I128
aI1
aF0.5063913037297859
aI71
aF0.6542572699140626
aI60
aI23
aF0.07374034648986605
aF0.21531918049123788
aI101
asbag1
(g10
g3
Ntp3600
Rp3601
(dp3602
g14
(lp3603
I1
aI1
aF0.9892366525960372
aI12
aF0.6666224026349645
aI450
aI20
aF0.08325061291858116
aF0.5956133432855271
aI331
asbasg20
I20
sbg21
(g25
S'\x80\n$%\xc7\x98\x8f?'
p3604
tp3605
Rp3606
tp3607
a(g1
(g2
g3
Ntp3608
Rp3609
(dp3610
g7
I128
sg8
(lp3611
g1
(g10
g3
Ntp3612
Rp3613
(dp3614
g14
(lp3615
I128
aI1
aF0.2731857941848157
aI65
aF0.6782080619468416
aI62
aI88
aF0.6396467142342982
aF0.3036007532789312
aI264
asbag1
(g10
g3
Ntp3616
Rp3617
(dp3618
g14
(lp3619
I1
aI1
aF0.22544003211643332
aI98
aF0.630706052289026
aI388
aI20
aF0.5013545329010396
aF0.49343668413216746
aI269
asbasg20
I20
sbg21
(g25
S'\xf5\xa8\xae+g\x07\xe7?'
p3620
tp3621
Rp3622
tp3623
a(g1
(g2
g3
Ntp3624
Rp3625
(dp3626
g7
I128
sg8
(lp3627
g1
(g10
g3
Ntp3628
Rp3629
(dp3630
g14
(lp3631
I128
aI1
aF0.7507186131193754
aI81
aF0.7439931453668329
aI257
aI36
aF0.17504816972370474
aF0.4464043466944304
aI336
asbag1
(g10
g3
Ntp3632
Rp3633
(dp3634
g14
(lp3635
I1
aI1
aF0.8548887083115626
aI12
aF0.2200933744903306
aI231
aI20
aF0.5138234971383445
aF0.331784126379799
aI290
asbasg20
I20
sbg21
(g25
S'r\xeb\x90O\x98\x8a\xe9\xbf'
p3636
tp3637
Rp3638
tp3639
a(g1
(g2
g3
Ntp3640
Rp3641
(dp3642
g7
I128
sg8
(lp3643
g1
(g10
g3
Ntp3644
Rp3645
(dp3646
g14
(lp3647
I128
aI1
aF0.41432108937005696
aI32
aF0.2169451230466718
aI421
aI34
aF0.8515007611709268
aF0.5312765558795391
aI59
asbag1
(g10
g3
Ntp3648
Rp3649
(dp3650
g14
(lp3651
I1
aI1
aF0.18349448455021966
aI52
aF0.3531565434497782
aI250
aI45
aF0.48200972346054705
aF0.6428735671928533
aI268
asbag1
(g10
g3
Ntp3652
Rp3653
(dp3654
g14
(lp3655
I1
aI1
aF0.9634987930668901
aI73
aF0.5288777328858337
aI44
aI20
aF0.5153295149843196
aF0.8062009467893567
aI328
asbasg20
I20
sbg21
(g25
S'\x8c\xd4w\xcf\xaaH\xef?'
p3656
tp3657
Rp3658
tp3659
a(g1
(g2
g3
Ntp3660
Rp3661
(dp3662
g7
I128
sg8
(lp3663
g1
(g10
g3
Ntp3664
Rp3665
(dp3666
g14
(lp3667
I128
aI4
aF0.8274881589363214
aI81
aF0.05478051941164197
aI497
aI53
aF0.2703004790117385
aF0.15658251483903918
aI435
asbag1
(g10
g3
Ntp3668
Rp3669
(dp3670
g14
(lp3671
I4
aI1
aF0.36783818242118227
aI70
aF0.7607518321739781
aI189
aI20
aF0.2531295093021876
aF0.718050749395665
aI396
asbasg20
I20
sbg21
(g25
S'cDs\xe0\x05h\xfe?'
p3672
tp3673
Rp3674
tp3675
a(g1
(g2
g3
Ntp3676
Rp3677
(dp3678
g7
I128
sg8
(lp3679
g1
(g10
g3
Ntp3680
Rp3681
(dp3682
g14
(lp3683
I128
aI1
aF0.7202377895569156
aI55
aF0.19824372169153592
aI18
aI36
aF0.6606587438061755
aF0.6086665085751775
aI496
asbag1
(g10
g3
Ntp3684
Rp3685
(dp3686
g14
(lp3687
I1
aI1
aF0.5147112167532354
aI51
aF0.03337817781308294
aI117
aI20
aF0.7524061548701256
aF0.39831131145168275
aI43
asbasg20
I20
sbg21
(g25
S'\xb6v;]\x11\xaf\xf6\xbf'
p3688
tp3689
Rp3690
tp3691
a(g1
(g2
g3
Ntp3692
Rp3693
(dp3694
g7
I128
sg8
(lp3695
g1
(g10
g3
Ntp3696
Rp3697
(dp3698
g14
(lp3699
I128
aI1
aF0.4665934022949101
aI44
aF0.4781564551148497
aI211
aI20
aF0.24049034694941662
aF0.9200429684766918
aI150
asbasg20
I20
sbg21
(g25
S'?\xcc$\xbe\xaa\xc6\xf0?'
p3700
tp3701
Rp3702
tp3703
a(g1
(g2
g3
Ntp3704
Rp3705
(dp3706
g7
I128
sg8
(lp3707
g1
(g10
g3
Ntp3708
Rp3709
(dp3710
g14
(lp3711
I128
aI1
aF0.13478396734782772
aI77
aF0.8910733244668507
aI245
aI32
aF0.48679970752723023
aF0.2653286363436897
aI205
asbag1
(g10
g3
Ntp3712
Rp3713
(dp3714
g14
(lp3715
I1
aI1
aF0.7159059692762801
aI49
aF0.4129820518979528
aI331
aI47
aF0.10303932966152352
aF0.42788792539205434
aI25
asbag1
(g10
g3
Ntp3716
Rp3717
(dp3718
g14
(lp3719
I1
aI1
aF0.6482551298447481
aI35
aF0.2028272737682156
aI310
aI20
aF0.7392745960567926
aF0.6302669680870481
aI363
asbasg20
I20
sbg21
(g25
S'\x06]0\x9b\x99\xe0\xd1?'
p3720
tp3721
Rp3722
tp3723
a(g1
(g2
g3
Ntp3724
Rp3725
(dp3726
g7
I128
sg8
(lp3727
g1
(g10
g3
Ntp3728
Rp3729
(dp3730
g14
(lp3731
I128
aI2
aF0.14203714688129165
aI44
aF0.034843789904122846
aI340
aI70
aF0.8498333014559786
aF0.5910954242753782
aI256
asbag1
(g10
g3
Ntp3732
Rp3733
(dp3734
g14
(lp3735
I2
aI2
aF0.46591611314802195
aI16
aF0.9787284350689219
aI255
aI30
aF0.9935527554275886
aF0.539530675441012
aI387
asbag1
(g10
g3
Ntp3736
Rp3737
(dp3738
g14
(lp3739
I2
aI1
aF0.7209912046777169
aI53
aF0.3951062177076059
aI253
aI37
aF0.19333439788772078
aF0.3830162942409192
aI371
asbag1
(g10
g3
Ntp3740
Rp3741
(dp3742
g14
(lp3743
I1
aI1
aF0.672287555642911
aI12
aF0.03567175780317822
aI146
aI20
aF0.3263092577460974
aF0.6555111190952826
aI362
asbasg20
I20
sbg21
(g25
S'\x048Z\xfe\xa2\x16\xf7?'
p3744
tp3745
Rp3746
tp3747
a(g1
(g2
g3
Ntp3748
Rp3749
(dp3750
g7
I128
sg8
(lp3751
g1
(g10
g3
Ntp3752
Rp3753
(dp3754
g14
(lp3755
I128
aI1
aF0.6225694760480539
aI78
aF0.31342868080832637
aI422
aI45
aF0.5299362305398341
aF0.4819143956692964
aI306
asbag1
(g10
g3
Ntp3756
Rp3757
(dp3758
g14
(lp3759
I1
aI1
aF0.46470590819480506
aI66
aF0.15682458418299905
aI133
aI44
aF0.27321196062891534
aF0.6226787430794138
aI239
asbag1
(g10
g3
Ntp3760
Rp3761
(dp3762
g14
(lp3763
I1
aI1
aF0.14434355410615585
aI34
aF0.7127772512203068
aI242
aI20
aF0.18515559568643625
aF0.8286187168337826
aI253
asbasg20
I20
sbg21
(g25
S'"\t\xf1+\x1e\x8f\xd7\xbf'
p3764
tp3765
Rp3766
tp3767
a(g1
(g2
g3
Ntp3768
Rp3769
(dp3770
g7
I128
sg8
(lp3771
g1
(g10
g3
Ntp3772
Rp3773
(dp3774
g14
(lp3775
I128
aI4
aF0.060516845922231055
aI92
aF0.4589091201817165
aI469
aI16
aF0.9295447609380334
aF0.45115163383329093
aI473
asbag1
(g10
g3
Ntp3776
Rp3777
(dp3778
g14
(lp3779
I4
aI1
aF0.7112347168223802
aI59
aF0.6985231590461899
aI233
aI20
aF0.27722264152794146
aF0.44849767369825433
aI222
asbasg20
I20
sbg21
(g25
S'w2\xfd\xcfD\xfa\xc6\xbf'
p3780
tp3781
Rp3782
tp3783
a(g1
(g2
g3
Ntp3784
Rp3785
(dp3786
g7
I128
sg8
(lp3787
g1
(g10
g3
Ntp3788
Rp3789
(dp3790
g14
(lp3791
I128
aI1
aF0.4918874161967216
aI72
aF0.877962419116664
aI460
aI45
aF0.29112166748516477
aF0.5490648673282741
aI251
asbag1
(g10
g3
Ntp3792
Rp3793
(dp3794
g14
(lp3795
I1
aI1
aF0.7206507084770646
aI27
aF0.5848170063110806
aI180
aI20
aF0.8669971158916426
aF0.5313497005010174
aI119
asbasg20
I20
sbg21
(g25
S'\xa0\xbd\x0c\x9bz\x05\xad\xbf'
p3796
tp3797
Rp3798
tp3799
a(g1
(g2
g3
Ntp3800
Rp3801
(dp3802
g7
I128
sg8
(lp3803
g1
(g10
g3
Ntp3804
Rp3805
(dp3806
g14
(lp3807
I128
aI8
aF0.5434472273618622
aI33
aF0.2071718123638402
aI472
aI83
aF0.10258048470580616
aF0.6656092899960563
aI81
asbag1
(g10
g3
Ntp3808
Rp3809
(dp3810
g14
(lp3811
I8
aI1
aF0.7611026361991643
aI43
aF0.7857681029710196
aI144
aI31
aF0.3775538086215131
aF0.4511163517828206
aI65
asbag1
(g10
g3
Ntp3812
Rp3813
(dp3814
g14
(lp3815
I1
aI1
aF0.5718887390780314
aI70
aF0.33604373069862237
aI84
aI28
aF0.4382082443784172
aF0.9584093009619299
aI407
asbag1
(g10
g3
Ntp3816
Rp3817
(dp3818
g14
(lp3819
I1
aI1
aF0.6519051837753942
aI28
aF0.5708155789984594
aI173
aI20
aF0.7018014874074627
aF0.27567249795377136
aI453
asbasg20
I20
sbg21
(g25
S'%\\\xc2\x9c\xc4\xbe\xf6\xbf'
p3820
tp3821
Rp3822
tp3823
a(g1
(g2
g3
Ntp3824
Rp3825
(dp3826
g7
I128
sg8
(lp3827
g1
(g10
g3
Ntp3828
Rp3829
(dp3830
g14
(lp3831
I128
aI1
aF0.8069884036543081
aI81
aF0.286519422175612
aI139
aI56
aF0.5051267512576842
aF0.01692069686472497
aI345
asbag1
(g10
g3
Ntp3832
Rp3833
(dp3834
g14
(lp3835
I1
aI1
aF0.729321476182043
aI94
aF0.26201101570553564
aI378
aI20
aF0.6902596962080979
aF0.3154346607531212
aI389
asbasg20
I20
sbg21
(g25
S'kD\x18-\x9e\xa1\xef?'
p3836
tp3837
Rp3838
tp3839
a(g1
(g2
g3
Ntp3840
Rp3841
(dp3842
g7
I128
sg8
(lp3843
g1
(g10
g3
Ntp3844
Rp3845
(dp3846
g14
(lp3847
I128
aI4
aF0.49796160660291444
aI77
aF0.6664805036450857
aI451
aI49
aF0.03707060464689904
aF0.6186762981387357
aI168
asbag1
(g10
g3
Ntp3848
Rp3849
(dp3850
g14
(lp3851
I4
aI1
aF0.7819260660818499
aI96
aF0.8180291982337298
aI222
aI69
aF0.5784333570290783
aF0.8885405121036423
aI52
asbag1
(g10
g3
Ntp3852
Rp3853
(dp3854
g14
(lp3855
I1
aI1
aF0.34963674369745057
aI17
aF0.6574979042293864
aI306
aI20
aF0.06698962615224224
aF0.974817911137707
aI428
asbasg20
I20
sbg21
(g25
S']=\x9fa\xee\xf1\xf1\xbf'
p3856
tp3857
Rp3858
tp3859
a(g1
(g2
g3
Ntp3860
Rp3861
(dp3862
g7
I128
sg8
(lp3863
g1
(g10
g3
Ntp3864
Rp3865
(dp3866
g14
(lp3867
I128
aI1
aF0.06749031252534565
aI17
aF0.3413456993813536
aI114
aI35
aF0.9624912027476502
aF0.6619057570641947
aI229
asbag1
(g10
g3
Ntp3868
Rp3869
(dp3870
g14
(lp3871
I1
aI1
aF0.8265729957724962
aI21
aF0.7123796048836657
aI479
aI20
aF0.45519583552368836
aF0.8876147333762245
aI308
asbasg20
I20
sbg21
(g25
S'/\x91\x0e\xed\xb2.\xee\xbf'
p3872
tp3873
Rp3874
tp3875
a(g1
(g2
g3
Ntp3876
Rp3877
(dp3878
g7
I128
sg8
(lp3879
g1
(g10
g3
Ntp3880
Rp3881
(dp3882
g14
(lp3883
I128
aI1
aF0.9815696655773978
aI84
aF0.7991230941940786
aI171
aI83
aF0.49432127093018763
aF0.7809349387854946
aI452
asbag1
(g10
g3
Ntp3884
Rp3885
(dp3886
g14
(lp3887
I1
aI1
aF0.4636841408873328
aI95
aF0.3483225350778533
aI410
aI20
aF0.4114343411761212
aF0.41303375943255494
aI251
asbasg20
I20
sbg21
(g25
S'\xe0\x11o\x9cS\xcb\xdd?'
p3888
tp3889
Rp3890
tp3891
a(g1
(g2
g3
Ntp3892
Rp3893
(dp3894
g7
I128
sg8
(lp3895
g1
(g10
g3
Ntp3896
Rp3897
(dp3898
g14
(lp3899
I128
aI1
aF0.3604152419464537
aI72
aF0.2822337831432798
aI67
aI84
aF0.2883836667940581
aF0.2768456035633775
aI103
asbag1
(g10
g3
Ntp3900
Rp3901
(dp3902
g14
(lp3903
I1
aI1
aF0.09702997598039587
aI54
aF0.9962404898013515
aI496
aI20
aF0.2619652169997225
aF0.6342920041322286
aI48
asbasg20
I20
sbg21
(g25
S'R\xa4\xa3\xcc!>\xf4?'
p3904
tp3905
Rp3906
tp3907
a(g1
(g2
g3
Ntp3908
Rp3909
(dp3910
g7
I128
sg8
(lp3911
g1
(g10
g3
Ntp3912
Rp3913
(dp3914
g14
(lp3915
I128
aI2
aF0.9385110641254458
aI14
aF0.034843789904122846
aI247
aI91
aF0.2674567001948389
aF0.6592195107605113
aI256
asbag1
(g10
g3
Ntp3916
Rp3917
(dp3918
g14
(lp3919
I2
aI2
aF0.46591611314802195
aI16
aF0.9787284350689219
aI183
aI32
aF0.8865433145386549
aF0.5497864196355269
aI18
asbag1
(g10
g3
Ntp3920
Rp3921
(dp3922
g14
(lp3923
I2
aI1
aF0.7766742381428653
aI70
aF0.607952056934109
aI157
aI44
aF0.4903303490119084
aF0.07621690192697617
aI462
asbag1
(g10
g3
Ntp3924
Rp3925
(dp3926
g14
(lp3927
I1
aI1
aF0.8881408274678794
aI27
aF0.22981598892717447
aI427
aI20
aF0.5861154504270424
aF0.23941562410559458
aI242
asbasg20
I20
sbg21
(g25
S'\x00\x00\x00\x00\x00\x00\x00\xc0'
p3928
tp3929
Rp3930
tp3931
a(g1
(g2
g3
Ntp3932
Rp3933
(dp3934
g7
I128
sg8
(lp3935
g1
(g10
g3
Ntp3936
Rp3937
(dp3938
g14
(lp3939
I128
aI1
aF0.4910041038896819
aI42
aF0.3405077760347745
aI293
aI20
aF0.47652062119238714
aF0.9220213089755469
aI122
asbasg20
I20
sbg21
(g25
S'$\xc6\xf3\xb7\xbeI\xf8?'
p3940
tp3941
Rp3942
tp3943
a(g1
(g2
g3
Ntp3944
Rp3945
(dp3946
g7
I128
sg8
(lp3947
g1
(g10
g3
Ntp3948
Rp3949
(dp3950
g14
(lp3951
I128
aI1
aF0.201851330093822
aI51
aF0.2965960424160936
aI242
aI20
aF0.5891547991173043
aF0.695016188214195
aI426
asbasg20
I20
sbg21
(g25
S'\xe6\xb1\xe0\xdb?\x1d\x00@'
p3952
tp3953
Rp3954
tp3955
a(g1
(g2
g3
Ntp3956
Rp3957
(dp3958
g7
I128
sg8
(lp3959
g1
(g10
g3
Ntp3960
Rp3961
(dp3962
g14
(lp3963
I128
aI1
aF0.64572155530853
aI62
aF0.7279813570159329
aI306
aI20
aF0.46185679390430123
aF0.48409534912041674
aI206
asbasg20
I20
sbg21
(g25
S'\x8d+\x1f\xd2\x80\xf7\xed?'
p3964
tp3965
Rp3966
tp3967
a(g1
(g2
g3
Ntp3968
Rp3969
(dp3970
g7
I128
sg8
(lp3971
g1
(g10
g3
Ntp3972
Rp3973
(dp3974
g14
(lp3975
I128
aI128
aF0.3762349224299356
aI54
aF0.6241780349607376
aI57
aI222
aF0.5383509446819842
aF0.7503666272101173
aI91
asbag1
(g10
g3
Ntp3976
Rp3977
(dp3978
g14
(lp3979
I128
aI16
aF0.769656646806375
aI100
aF0.8404250919832604
aI498
aI39
aF0.655654910063241
aF0.29222625332966146
aI7
asbag1
(g10
g3
Ntp3980
Rp3981
(dp3982
g14
(lp3983
I16
aI2
aF0.6873210606014525
aI19
aF0.3325453408131879
aI374
aI23
aF0.16420070483328641
aF0.5042205380954344
aI448
asbag1
(g10
g3
Ntp3984
Rp3985
(dp3986
g14
(lp3987
I2
aI2
aF0.9958823364662142
aI50
aF0.7359161131864244
aI275
aI93
aF0.14503373577281364
aF0.6067598925616746
aI353
asbag1
(g10
g3
Ntp3988
Rp3989
(dp3990
g14
(lp3991
I2
aI2
aF0.05608959363285804
aI82
aF0.7256050886327395
aI217
aI26
aF0.6044301112983173
aF0.32762631262928243
aI107
asbag1
(g10
g3
Ntp3992
Rp3993
(dp3994
g14
(lp3995
I2
aI1
aF0.011084949405111622
aI75
aF0.33573061881392274
aI443
aI4
aF0.014230126461541981
aF0.7187775982433507
aI145
asbag1
(g10
g3
Ntp3996
Rp3997
(dp3998
g14
(lp3999
I1
aI1
aF0.5806161549229101
aI75
aF0.683493594826419
aI18
aI20
aF0.6035225988729542
aF0.16277815048418176
aI16
asbasg20
I20
sbI-50
tp4000
a(g1
(g2
g3
Ntp4001
Rp4002
(dp4003
g7
I128
sg8
(lp4004
g1
(g10
g3
Ntp4005
Rp4006
(dp4007
g14
(lp4008
I128
aI32
aF0.6000462959671258
aI78
aF0.6963969075939463
aI7
aI89
aF0.5550071287434163
aF0.5559938003647215
aI159
asbag1
(g10
g3
Ntp4009
Rp4010
(dp4011
g14
(lp4012
I32
aI16
aF0.2605308557542464
aI28
aF0.8717998925422941
aI397
aI30
aF0.018041916521868817
aF0.1989308245944995
aI247
asbag1
(g10
g3
Ntp4013
Rp4014
(dp4015
g14
(lp4016
I16
aI4
aF0.6668134977855723
aI17
aF0.9982295175388826
aI195
aI14
aF0.39654390090357383
aF0.7817637221996507
aI149
asbag1
(g10
g3
Ntp4017
Rp4018
(dp4019
g14
(lp4020
I4
aI2
aF0.9748195115015356
aI16
aF0.3578827092711191
aI421
aI28
aF0.9791395942121894
aF0.3141808576290883
aI95
asbag1
(g10
g3
Ntp4021
Rp4022
(dp4023
g14
(lp4024
I2
aI2
aF0.5211818244126768
aI41
aF0.6651952756508265
aI430
aI73
aF0.789366898648711
aF0.09875719599137045
aI114
asbag1
(g10
g3
Ntp4025
Rp4026
(dp4027
g14
(lp4028
I2
aI2
aF0.009234592581459422
aI41
aF0.15249649864496861
aI446
aI61
aF0.6602915702681409
aF0.9549432026350387
aI442
asbag1
(g10
g3
Ntp4029
Rp4030
(dp4031
g14
(lp4032
I2
aI2
aF0.2513923015946118
aI90
aF0.574920748377312
aI206
aI8
aF0.29393146384675073
aF0.04056827232085625
aI296
asbag1
(g10
g3
Ntp4033
Rp4034
(dp4035
g14
(lp4036
I2
aI1
aF0.2707711026076556
aI90
aF0.6910544645141349
aI302
aI91
aF0.7415575610190832
aF0.5696122296430712
aI456
asbag1
(g10
g3
Ntp4037
Rp4038
(dp4039
g14
(lp4040
I1
aI1
aF0.42750232960004486
aI76
aF0.11197092517643625
aI422
aI20
aF0.3066673179331336
aF0.02309501456863261
aI129
asbasg20
I20
sbI-50
tp4041
a(g1
(g2
g3
Ntp4042
Rp4043
(dp4044
g7
I128
sg8
(lp4045
g1
(g10
g3
Ntp4046
Rp4047
(dp4048
g14
(lp4049
I128
aI64
aF0.3376601230531098
aI73
aF0.29614923195555765
aI79
aI123
aF0.18663243634795268
aF0.9878438311234167
aI431
asbag1
(g10
g3
Ntp4050
Rp4051
(dp4052
g14
(lp4053
I64
aI64
aF0.5444633311365449
aI50
aF0.038981104004131906
aI382
aI113
aF0.4588541335522781
aF0.16373559070373755
aI176
asbag1
(g10
g3
Ntp4054
Rp4055
(dp4056
g14
(lp4057
I64
aI2
aF0.7536633365655385
aI88
aF0.9167087882041547
aI427
aI85
aF0.2297553830655933
aF0.7479318894115589
aI393
asbag1
(g10
g3
Ntp4058
Rp4059
(dp4060
g14
(lp4061
I2
aI1
aF0.25781658531309515
aI55
aF0.6580815415046708
aI307
aI92
aF0.7509132724423265
aF0.37538507677890165
aI8
asbag1
(g10
g3
Ntp4062
Rp4063
(dp4064
g14
(lp4065
I1
aI1
aF0.562122753054315
aI56
aF0.3507282011489994
aI231
aI20
aF0.9706436148958549
aF0.3101009213419077
aI125
asbasg20
I20
sbI-50
tp4066
a(g1
(g2
g3
Ntp4067
Rp4068
(dp4069
g7
I128
sg8
(lp4070
g1
(g10
g3
Ntp4071
Rp4072
(dp4073
g14
(lp4074
I128
aI2
aF0.4216104089779622
aI29
aF0.3909311652050361
aI89
aI57
aF0.8333469203607667
aF0.08961493982312341
aI493
asbag1
(g10
g3
Ntp4075
Rp4076
(dp4077
g14
(lp4078
I2
aI1
aF0.7358245812025364
aI97
aF0.534650836276177
aI32
aI48
aF0.9601928940377749
aF0.25267973614062955
aI271
asbag1
(g10
g3
Ntp4079
Rp4080
(dp4081
g14
(lp4082
I1
aI1
aF0.24298599712295532
aI53
aF0.372635236977229
aI86
aI20
aF0.4666688146078096
aF0.20089433212339425
aI364
asbasg20
I20
sbg21
(g25
S'\xa8\x02F\x81\x84\xb0\xe9?'
p4083
tp4084
Rp4085
tp4086
a(g1
(g2
g3
Ntp4087
Rp4088
(dp4089
g7
I128
sg8
(lp4090
g1
(g10
g3
Ntp4091
Rp4092
(dp4093
g14
(lp4094
I128
aI8
aF0.4016767874726115
aI76
aF0.62131991528873
aI371
aI31
aF0.4214951469158237
aF0.3699599771055012
aI164
asbag1
(g10
g3
Ntp4095
Rp4096
(dp4097
g14
(lp4098
I8
aI4
aF0.1668672793768049
aI78
aF0.619543490750177
aI401
aI57
aF0.42072531765173937
aF0.9016427150253044
aI81
asbag1
(g10
g3
Ntp4099
Rp4100
(dp4101
g14
(lp4102
I4
aI4
aF0.27915711374121965
aI97
aF0.7820635219653703
aI144
aI30
aF0.08549198392485124
aF0.6603356714879971
aI356
asbag1
(g10
g3
Ntp4103
Rp4104
(dp4105
g14
(lp4106
I4
aI4
aF0.5936819954505311
aI85
aF0.06118208349072185
aI369
aI24
aF0.17800235460293967
aF0.23258739810909435
aI312
asbag1
(g10
g3
Ntp4107
Rp4108
(dp4109
g14
(lp4110
I4
aI2
aF0.9804556262039106
aI100
aF0.21195061206413002
aI152
aI67
aF0.06710947720833704
aF0.43951229014766824
aI131
asbag1
(g10
g3
Ntp4111
Rp4112
(dp4113
g14
(lp4114
I2
aI2
aF0.9282008733575602
aI17
aF0.9110522162357366
aI468
aI95
aF0.48380126967844084
aF0.16407441513555165
aI53
asbag1
(g10
g3
Ntp4115
Rp4116
(dp4117
g14
(lp4118
I2
aI1
aF0.9681086199981943
aI83
aF0.604617971364006
aI306
aI26
aF0.8855147325118172
aF0.07154922006489928
aI183
asbag1
(g10
g3
Ntp4119
Rp4120
(dp4121
g14
(lp4122
I1
aI1
aF0.16719231630056808
aI59
aF0.18082991386150593
aI458
aI20
aF0.4961248213948509
aF0.46934339751661625
aI402
asbasg20
I20
sbI-50
tp4123
a(g1
(g2
g3
Ntp4124
Rp4125
(dp4126
g7
I128
sg8
(lp4127
g1
(g10
g3
Ntp4128
Rp4129
(dp4130
g14
(lp4131
I128
aI32
aF0.7678237987381055
aI34
aF0.9729241062848178
aI296
aI91
aF0.06271364440591443
aF0.8738998712982817
aI190
asbag1
(g10
g3
Ntp4132
Rp4133
(dp4134
g14
(lp4135
I32
aI1
aF0.06799480258602952
aI34
aF0.12922024883494976
aI414
aI85
aF0.7842762779960165
aF0.14119869104032146
aI299
asbag1
(g10
g3
Ntp4136
Rp4137
(dp4138
g14
(lp4139
I1
aI1
aF0.8924239164876173
aI78
aF0.9218601865301252
aI139
aI20
aF0.9985843210066994
aF0.7229442110200334
aI266
asbasg20
I20
sbI-50
tp4140
a(g1
(g2
g3
Ntp4141
Rp4142
(dp4143
g7
I128
sg8
(lp4144
g1
(g10
g3
Ntp4145
Rp4146
(dp4147
g14
(lp4148
I128
aI64
aF0.5310971226501112
aI99
aF0.6730111092007568
aI91
aI91
aF0.24571525471154354
aF0.8175620447097124
aI227
asbag1
(g10
g3
Ntp4149
Rp4150
(dp4151
g14
(lp4152
I64
aI16
aF0.2948400525286542
aI36
aF0.7920632883536542
aI390
aI44
aF0.03658686555175972
aF0.536503797751327
aI377
asbag1
(g10
g3
Ntp4153
Rp4154
(dp4155
g14
(lp4156
I16
aI2
aF0.4584962185406434
aI29
aF0.6859340471727982
aI488
aI81
aF0.38794267235296886
aF0.5238386490214924
aI219
asbag1
(g10
g3
Ntp4157
Rp4158
(dp4159
g14
(lp4160
I2
aI2
aF0.8919188179754748
aI29
aF0.9975341306835573
aI31
aI95
aF0.1677042028303083
aF0.7297898265048761
aI493
asbag1
(g10
g3
Ntp4161
Rp4162
(dp4163
g14
(lp4164
I2
aI2
aF0.8588089468612372
aI54
aF0.767087498939159
aI316
aI64
aF0.18439883683051617
aF0.8585486339573756
aI281
asbag1
(g10
g3
Ntp4165
Rp4166
(dp4167
g14
(lp4168
I2
aI1
aF0.5692054443718602
aI30
aF0.5387679684597758
aI144
aI50
aF0.16806474873608246
aF0.052181537121346544
aI181
asbag1
(g10
g3
Ntp4169
Rp4170
(dp4171
g14
(lp4172
I1
aI1
aF0.6879397743290818
aI97
aF0.3860570083120566
aI445
aI20
aF0.3336150312799888
aF0.6192700752701288
aI424
asbasg20
I20
sbI-50
tp4173
a(g1
(g2
g3
Ntp4174
Rp4175
(dp4176
g7
I128
sg8
(lp4177
g1
(g10
g3
Ntp4178
Rp4179
(dp4180
g14
(lp4181
I128
aI16
aF0.8207497318839643
aI36
aF0.786734362608973
aI283
aI45
aF0.31690441916246825
aF0.7769545550658752
aI413
asbag1
(g10
g3
Ntp4182
Rp4183
(dp4184
g14
(lp4185
I16
aI16
aF0.8816821659057751
aI74
aF0.644329915564456
aI19
aI105
aF0.9716785748791998
aF0.1718633959132766
aI411
asbag1
(g10
g3
Ntp4186
Rp4187
(dp4188
g14
(lp4189
I16
aI1
aF0.9549283653415604
aI24
aF0.8532488177967845
aI257
aI3
aF0.32185817163332997
aF0.8248874588827589
aI331
asbag1
(g10
g3
Ntp4190
Rp4191
(dp4192
g14
(lp4193
I1
aI1
aF0.9079174654120054
aI36
aF0.9473457207738949
aI23
aI20
aF0.03485903247208666
aF0.4955922605793607
aI446
asbasg20
I20
sbI-50
tp4194
a(g1
(g2
g3
Ntp4195
Rp4196
(dp4197
g7
I128
sg8
(lp4198
g1
(g10
g3
Ntp4199
Rp4200
(dp4201
g14
(lp4202
I128
aI4
aF0.003995775078153185
aI10
aF0.9522500010378445
aI38
aI80
aF0.06781380533142689
aF0.829721263720346
aI305
asbag1
(g10
g3
Ntp4203
Rp4204
(dp4205
g14
(lp4206
I4
aI1
aF0.10319994073844585
aI41
aF0.1907818038705249
aI48
aI19
aF0.7306723317764829
aF0.8862783973535908
aI470
asbag1
(g10
g3
Ntp4207
Rp4208
(dp4209
g14
(lp4210
I1
aI1
aF0.3317352854371618
aI22
aF0.4474068278999055
aI99
aI20
aF0.4602590040269948
aF0.06137294778906888
aI304
asbasg20
I20
sbg21
(g25
S'.\xc3\xd9\xc27\xa8\xf1\xbf'
p4211
tp4212
Rp4213
tp4214
a(g1
(g2
g3
Ntp4215
Rp4216
(dp4217
g7
I128
sg8
(lp4218
g1
(g10
g3
Ntp4219
Rp4220
(dp4221
g14
(lp4222
I128
aI32
aF0.0730173995398612
aI98
aF0.9279348770452581
aI152
aI83
aF0.372603527092754
aF0.9741825464360306
aI395
asbag1
(g10
g3
Ntp4223
Rp4224
(dp4225
g14
(lp4226
I32
aI32
aF0.7107900208692268
aI39
aF0.7283479171687636
aI458
aI53
aF0.4275422658352972
aF0.9914095087515437
aI305
asbag1
(g10
g3
Ntp4227
Rp4228
(dp4229
g14
(lp4230
I32
aI2
aF0.36284981000127947
aI28
aF0.41183966535484806
aI57
aI75
aF0.7851931808311586
aF0.36992529762386206
aI171
asbag1
(g10
g3
Ntp4231
Rp4232
(dp4233
g14
(lp4234
I2
aI2
aF0.4250156680554823
aI37
aF0.9721144702064438
aI313
aI38
aF0.19423235457529042
aF0.7696995609853087
aI22
asbag1
(g10
g3
Ntp4235
Rp4236
(dp4237
g14
(lp4238
I2
aI1
aF0.4911623658699493
aI71
aF0.12520223165588407
aI24
aI18
aF0.30940917041176397
aF0.03056915098987123
aI14
asbag1
(g10
g3
Ntp4239
Rp4240
(dp4241
g14
(lp4242
I1
aI1
aF0.19460359129123628
aI90
aF0.054344211719202784
aI240
aI20
aF0.0394099879058748
aF0.31843311570658495
aI83
asbasg20
I20
sbI-50
tp4243
a(g1
(g2
g3
Ntp4244
Rp4245
(dp4246
g7
I128
sg8
(lp4247
g1
(g10
g3
Ntp4248
Rp4249
(dp4250
g14
(lp4251
I128
aI128
aF0.42334792898875107
aI44
aF0.5618978088536474
aI485
aI222
aF0.725569352002478
aF0.10694990310859309
aI116
asbag1
(g10
g3
Ntp4252
Rp4253
(dp4254
g14
(lp4255
I128
aI32
aF0.4755450561089394
aI75
aF0.9557829962034015
aI79
aI79
aF0.49679389458647794
aF0.8132796624507306
aI32
asbag1
(g10
g3
Ntp4256
Rp4257
(dp4258
g14
(lp4259
I32
aI1
aF0.0820668569279932
aI62
aF0.005770822475338555
aI269
aI70
aF0.6801536838478831
aF0.774136725233307
aI276
asbag1
(g10
g3
Ntp4260
Rp4261
(dp4262
g14
(lp4263
I1
aI1
aF0.7295345565864191
aI36
aF0.016368131546401488
aI55
aI20
aF0.321081450713662
aF0.49408466089709047
aI59
asbasg20
I20
sbI-50
tp4264
a(g1
(g2
g3
Ntp4265
Rp4266
(dp4267
g7
I128
sg8
(lp4268
g1
(g10
g3
Ntp4269
Rp4270
(dp4271
g14
(lp4272
I128
aI2
aF0.1565093615041866
aI14
aF0.905849701919725
aI166
aI85
aF0.17778587867258588
aF0.3697197784769771
aI228
asbag1
(g10
g3
Ntp4273
Rp4274
(dp4275
g14
(lp4276
I2
aI1
aF0.931670098362918
aI83
aF0.3720664139591304
aI248
aI100
aF0.9464023134925201
aF0.23444388387712556
aI298
asbag1
(g10
g3
Ntp4277
Rp4278
(dp4279
g14
(lp4280
I1
aI1
aF0.6169461698469947
aI37
aF0.2350297284199958
aI337
aI20
aF0.708027195213213
aF0.20745811585976115
aI192
asbasg20
I20
sbg21
(g25
S'b\xa0\x847\x9a:\xff\xbf'
p4281
tp4282
Rp4283
tp4284
a(g1
(g2
g3
Ntp4285
Rp4286
(dp4287
g7
I128
sg8
(lp4288
g1
(g10
g3
Ntp4289
Rp4290
(dp4291
g14
(lp4292
I128
aI4
aF0.38902391805659287
aI99
aF0.9901491493416615
aI43
aI59
aF0.6677450136464959
aF0.22371021072912822
aI301
asbag1
(g10
g3
Ntp4293
Rp4294
(dp4295
g14
(lp4296
I4
aI1
aF0.4274040761534985
aI95
aF0.5203103850346594
aI372
aI58
aF0.6309856876630979
aF0.42974593168214337
aI440
asbag1
(g10
g3
Ntp4297
Rp4298
(dp4299
g14
(lp4300
I1
aI1
aF0.8594717817866839
aI53
aF0.1173447165653908
aI257
aI20
aF0.6771880548346035
aF0.22486071481098768
aI3
asbasg20
I20
sbg21
(g25
S'\x00\x00\x00\x00\x00\x00\x00\xc0'
p4301
tp4302
Rp4303
tp4304
a(g1
(g2
g3
Ntp4305
Rp4306
(dp4307
g7
I128
sg8
(lp4308
g1
(g10
g3
Ntp4309
Rp4310
(dp4311
g14
(lp4312
I128
aI16
aF0.5390813089843622
aI17
aF0.14165991716298965
aI397
aI33
aF0.10678979800077693
aF0.34873300564623755
aI499
asbag1
(g10
g3
Ntp4313
Rp4314
(dp4315
g14
(lp4316
I16
aI1
aF0.6835158527865652
aI96
aF0.3643449388510579
aI242
aI77
aF0.8070073979097107
aF0.6690864075391815
aI317
asbag1
(g10
g3
Ntp4317
Rp4318
(dp4319
g14
(lp4320
I1
aI1
aF0.593953976857267
aI100
aF0.9516876680612124
aI247
aI20
aF0.486175310973208
aF0.36759602549405634
aI106
asbasg20
I20
sbg21
(g25
S'TV$"\x95<\xc1\xbf'
p4321
tp4322
Rp4323
tp4324
a(g1
(g2
g3
Ntp4325
Rp4326
(dp4327
g7
I128
sg8
(lp4328
g1
(g10
g3
Ntp4329
Rp4330
(dp4331
g14
(lp4332
I128
aI8
aF0.6914802773484839
aI96
aF0.9383341458400987
aI354
aI49
aF0.2830572621637618
aF0.47466124688890554
aI383
asbag1
(g10
g3
Ntp4333
Rp4334
(dp4335
g14
(lp4336
I8
aI4
aF0.0808275112879514
aI46
aF0.988346750822957
aI219
aI39
aF0.8287069935536394
aF0.9037662124755639
aI476
asbag1
(g10
g3
Ntp4337
Rp4338
(dp4339
g14
(lp4340
I4
aI4
aF0.16833267157447185
aI57
aF0.3137167725803467
aI497
aI89
aF0.5423204315353889
aF0.8029739459465142
aI51
asbag1
(g10
g3
Ntp4341
Rp4342
(dp4343
g14
(lp4344
I4
aI2
aF0.5323201032530435
aI35
aF0.4860585230377621
aI233
aI34
aF0.7404010151808087
aF0.6995718374834589
aI130
asbag1
(g10
g3
Ntp4345
Rp4346
(dp4347
g14
(lp4348
I2
aI2
aF0.06456085747871099
aI93
aF0.026121983240625757
aI383
aI72
aF0.2533673788059143
aF0.8893248637163201
aI52
asbag1
(g10
g3
Ntp4349
Rp4350
(dp4351
g14
(lp4352
I2
aI1
aF0.2133850252740077
aI74
aF0.493161680239643
aI42
aI68
aF0.877746469273335
aF0.6245980202445746
aI149
asbag1
(g10
g3
Ntp4353
Rp4354
(dp4355
g14
(lp4356
I1
aI1
aF0.2500925730300362
aI94
aF0.05814213985445216
aI28
aI20
aF0.3549685396083704
aF0.1918023726245448
aI17
asbasg20
I20
sbI-50
tp4357
a(g1
(g2
g3
Ntp4358
Rp4359
(dp4360
g7
I128
sg8
(lp4361
g1
(g10
g3
Ntp4362
Rp4363
(dp4364
g14
(lp4365
I128
aI16
aF0.8634802746585943
aI57
aF0.44021353120222395
aI430
aI45
aF0.9368615350521527
aF0.36157257179924873
aI380
asbag1
(g10
g3
Ntp4366
Rp4367
(dp4368
g14
(lp4369
I16
aI16
aF0.910597536620438
aI32
aF0.2859712089799288
aI127
aI110
aF0.7206649211268039
aF0.4844192752112657
aI169
asbag1
(g10
g3
Ntp4370
Rp4371
(dp4372
g14
(lp4373
I16
aI2
aF0.12973069522324365
aI68
aF0.25386573586413264
aI449
aI52
aF0.639282016005871
aF0.19495407001785692
aI415
asbag1
(g10
g3
Ntp4374
Rp4375
(dp4376
g14
(lp4377
I2
aI1
aF0.1882103100536895
aI38
aF0.9374080186424738
aI248
aI53
aF0.14668418118326276
aF0.9959733759533232
aI231
asbag1
(g10
g3
Ntp4378
Rp4379
(dp4380
g14
(lp4381
I1
aI1
aF0.9073176397691888
aI38
aF0.5679638985668919
aI469
aI20
aF0.4526307328461916
aF0.3840414006172136
aI305
asbasg20
I20
sbI-50
tp4382
a(g1
(g2
g3
Ntp4383
Rp4384
(dp4385
g7
I128
sg8
(lp4386
g1
(g10
g3
Ntp4387
Rp4388
(dp4389
g14
(lp4390
I128
aI2
aF0.05901107019492724
aI98
aF0.9048650656493005
aI312
aI47
aF0.20660813878416218
aF0.7578318386850756
aI367
asbag1
(g10
g3
Ntp4391
Rp4392
(dp4393
g14
(lp4394
I2
aI2
aF0.886101926617655
aI56
aF0.9427674575945634
aI345
aI36
aF0.5583671777520862
aF0.9094420495076246
aI429
asbag1
(g10
g3
Ntp4395
Rp4396
(dp4397
g14
(lp4398
I2
aI1
aF0.7186167467181697
aI47
aF0.07190308455487704
aI365
aI90
aF0.01432591141144135
aF0.031687323003598444
aI236
asbag1
(g10
g3
Ntp4399
Rp4400
(dp4401
g14
(lp4402
I1
aI1
aF0.23922516543804773
aI68
aF0.026407950903028277
aI55
aI20
aF0.7123661695516377
aF0.5749500356325916
aI135
asbasg20
I20
sbg21
(g25
S'\xafZ\x87\xaf&K\xf7\xbf'
p4403
tp4404
Rp4405
tp4406
a(g1
(g2
g3
Ntp4407
Rp4408
(dp4409
g7
I128
sg8
(lp4410
g1
(g10
g3
Ntp4411
Rp4412
(dp4413
g14
(lp4414
I128
aI8
aF0.9139619041039744
aI97
aF0.1349219428402677
aI44
aI41
aF0.9584927234306754
aF0.923720606960525
aI153
asbag1
(g10
g3
Ntp4415
Rp4416
(dp4417
g14
(lp4418
I8
aI8
aF0.4283607444967954
aI42
aF0.7041179965762138
aI282
aI57
aF0.017732031226125544
aF0.6220396567110218
aI229
asbag1
(g10
g3
Ntp4419
Rp4420
(dp4421
g14
(lp4422
I8
aI8
aF0.037855394624842664
aI71
aF0.36891366994741026
aI283
aI46
aF0.9272701443023578
aF0.03240879289724907
aI241
asbag1
(g10
g3
Ntp4423
Rp4424
(dp4425
g14
(lp4426
I8
aI4
aF0.7114824186253411
aI84
aF0.8449403570352209
aI360
aI53
aF0.1563510335899898
aF0.6765017577850808
aI297
asbag1
(g10
g3
Ntp4427
Rp4428
(dp4429
g14
(lp4430
I4
aI1
aF0.5264091555758296
aI69
aF0.8429482586501651
aI84
aI16
aF0.3654179849309711
aF0.8088515408305373
aI430
asbag1
(g10
g3
Ntp4431
Rp4432
(dp4433
g14
(lp4434
I1
aI1
aF0.584778126242669
aI16
aF0.05022122924492467
aI279
aI20
aF0.7007471875911614
aF0.6586891429464665
aI264
asbasg20
I20
sbI-50
tp4435
a(g1
(g2
g3
Ntp4436
Rp4437
(dp4438
g7
I128
sg8
(lp4439
g1
(g10
g3
Ntp4440
Rp4441
(dp4442
g14
(lp4443
I128
aI2
aF0.6258581171843235
aI22
aF0.8651778783748912
aI18
aI91
aF0.25073471320645757
aF0.2895579423357939
aI101
asbag1
(g10
g3
Ntp4444
Rp4445
(dp4446
g14
(lp4447
I2
aI1
aF0.8947860958812679
aI75
aF0.3073502357015485
aI280
aI44
aF0.5164244717415426
aF0.6369479328955996
aI416
asbag1
(g10
g3
Ntp4448
Rp4449
(dp4450
g14
(lp4451
I1
aI1
aF0.5663042871118095
aI63
aF0.13505434857482224
aI288
aI20
aF0.7991819071147023
aF0.6155121308044622
aI221
asbasg20
I20
sbg21
(g25
S'\xbci\xa7@(\r\xdb?'
p4452
tp4453
Rp4454
tp4455
a(g1
(g2
g3
Ntp4456
Rp4457
(dp4458
g7
I128
sg8
(lp4459
g1
(g10
g3
Ntp4460
Rp4461
(dp4462
g14
(lp4463
I128
aI2
aF0.7051966971191557
aI84
aF0.8706108650317748
aI233
aI3
aF0.7627298061893961
aF0.3699911848005396
aI64
asbag1
(g10
g3
Ntp4464
Rp4465
(dp4466
g14
(lp4467
I2
aI1
aF0.8435537412892613
aI95
aF0.08131381581788144
aI125
aI45
aF0.2848819391391475
aF0.7140646934238847
aI85
asbag1
(g10
g3
Ntp4468
Rp4469
(dp4470
g14
(lp4471
I1
aI1
aF0.263920789398153
aI100
aF0.1385471329498823
aI92
aI20
aF0.5085175919693119
aF0.17135440535796276
aI490
asbasg20
I20
sbg21
(g25
S'\xbfezu\x8b|\xea\xbf'
p4472
tp4473
Rp4474
tp4475
a(g1
(g2
g3
Ntp4476
Rp4477
(dp4478
g7
I128
sg8
(lp4479
g1
(g10
g3
Ntp4480
Rp4481
(dp4482
g14
(lp4483
I128
aI16
aF0.5588461054898506
aI52
aF0.823049275734457
aI413
aI86
aF0.4726086415646775
aF0.12532021551675576
aI123
asbag1
(g10
g3
Ntp4484
Rp4485
(dp4486
g14
(lp4487
I16
aI16
aF0.7717076636937519
aI93
aF0.28454225924809307
aI384
aI102
aF0.7531117790580911
aF0.901162560202378
aI389
asbag1
(g10
g3
Ntp4488
Rp4489
(dp4490
g14
(lp4491
I16
aI1
aF0.9158448914922931
aI50
aF0.28245590016338495
aI373
aI77
aF0.44402937508774154
aF0.28212560702936273
aI460
asbag1
(g10
g3
Ntp4492
Rp4493
(dp4494
g14
(lp4495
I1
aI1
aF0.24196201680090146
aI25
aF0.17259782893994646
aI484
aI20
aF0.968775424557618
aF0.7645090728209508
aI151
asbasg20
I20
sbI-50
tp4496
a(g1
(g2
g3
Ntp4497
Rp4498
(dp4499
g7
I128
sg8
(lp4500
g1
(g10
g3
Ntp4501
Rp4502
(dp4503
g14
(lp4504
I128
aI8
aF0.7100014146429208
aI62
aF0.7508581771136484
aI368
aI69
aF0.5836843374326708
aF0.7481785997958625
aI443
asbag1
(g10
g3
Ntp4505
Rp4506
(dp4507
g14
(lp4508
I8
aI4
aF0.28723465709923224
aI99
aF0.15575409132702012
aI425
aI55
aF0.8987834905607321
aF0.015259382044191305
aI410
asbag1
(g10
g3
Ntp4509
Rp4510
(dp4511
g14
(lp4512
I4
aI1
aF0.7513948453975139
aI93
aF0.1727990663480049
aI258
aI28
aF0.1726329212231219
aF0.6202087542437806
aI408
asbag1
(g10
g3
Ntp4513
Rp4514
(dp4515
g14
(lp4516
I1
aI1
aF0.8896239780182861
aI37
aF0.9902101159854988
aI468
aI20
aF0.9741260551839408
aF0.2873238814544692
aI460
asbasg20
I20
sbg21
(g25
S'\x07\xffq\xf4\xe8\xea\xef\xbf'
p4517
tp4518
Rp4519
tp4520
a(g1
(g2
g3
Ntp4521
Rp4522
(dp4523
g7
I128
sg8
(lp4524
g1
(g10
g3
Ntp4525
Rp4526
(dp4527
g14
(lp4528
I128
aI8
aF0.6778607744247659
aI48
aF0.5822844524361293
aI75
aI26
aF0.7557316429869335
aF0.7574387132231528
aI67
asbag1
(g10
g3
Ntp4529
Rp4530
(dp4531
g14
(lp4532
I8
aI8
aF0.5898719143400454
aI28
aF0.08488926152725285
aI7
aI80
aF0.5163197332239028
aF0.43355088220196947
aI452
asbag1
(g10
g3
Ntp4533
Rp4534
(dp4535
g14
(lp4536
I8
aI8
aF0.8467508889278341
aI21
aF0.15606447713050398
aI299
aI34
aF0.7501842012246643
aF0.8900344909604545
aI431
asbag1
(g10
g3
Ntp4537
Rp4538
(dp4539
g14
(lp4540
I8
aI2
aF0.41659204794226345
aI14
aF0.18391999717251206
aI421
aI80
aF0.9643169467314865
aF0.4873498820830837
aI148
asbag1
(g10
g3
Ntp4541
Rp4542
(dp4543
g14
(lp4544
I2
aI1
aF0.5358973718629382
aI96
aF0.8131260158912513
aI353
aI52
aF0.4339188759958692
aF0.2073858186381522
aI151
asbag1
(g10
g3
Ntp4545
Rp4546
(dp4547
g14
(lp4548
I1
aI1
aF0.15216831381627682
aI21
aF0.1936802411369184
aI416
aI20
aF0.5482534071558385
aF0.27087081152747694
aI299
asbasg20
I20
sbI-50
tp4549
a(g1
(g2
g3
Ntp4550
Rp4551
(dp4552
g7
I128
sg8
(lp4553
g1
(g10
g3
Ntp4554
Rp4555
(dp4556
g14
(lp4557
I128
aI32
aF0.8491895596979752
aI61
aF0.9391077695406426
aI278
aI67
aF0.5328896285178145
aF0.6548150826382787
aI159
asbag1
(g10
g3
Ntp4558
Rp4559
(dp4560
g14
(lp4561
I32
aI8
aF0.9525446648743271
aI89
aF0.2975594778896693
aI40
aI35
aF0.5003650800129146
aF0.090985001604169
aI119
asbag1
(g10
g3
Ntp4562
Rp4563
(dp4564
g14
(lp4565
I8
aI1
aF0.5720467873910883
aI13
aF0.45851585680746987
aI61
aI25
aF0.5236714528686063
aF0.7453581313884677
aI219
asbag1
(g10
g3
Ntp4566
Rp4567
(dp4568
g14
(lp4569
I1
aI1
aF0.06617719536056388
aI53
aF0.09483532805547512
aI400
aI20
aF0.09641377841468513
aF0.2140045087266026
aI82
asbasg20
I20
sbI-50
tp4570
a(g1
(g2
g3
Ntp4571
Rp4572
(dp4573
g7
I128
sg8
(lp4574
g1
(g10
g3
Ntp4575
Rp4576
(dp4577
g14
(lp4578
I128
aI4
aF0.7062377521829258
aI31
aF0.5703854155857759
aI359
aI78
aF0.7797412250756697
aF0.4090629866951624
aI222
asbag1
(g10
g3
Ntp4579
Rp4580
(dp4581
g14
(lp4582
I4
aI4
aF0.6407346296967006
aI75
aF0.8709697003241296
aI79
aI78
aF0.07099292427793424
aF0.4356779692664956
aI180
asbag1
(g10
g3
Ntp4583
Rp4584
(dp4585
g14
(lp4586
I4
aI4
aF0.402772739902849
aI64
aF0.2470473036155315
aI455
aI86
aF0.7192859138165605
aF0.2547996606815768
aI177
asbag1
(g10
g3
Ntp4587
Rp4588
(dp4589
g14
(lp4590
I4
aI4
aF0.8420315905865022
aI46
aF0.7324322405571363
aI194
aI8
aF0.3612292876724559
aF0.4198571299671978
aI383
asbag1
(g10
g3
Ntp4591
Rp4592
(dp4593
g14
(lp4594
I4
aI2
aF0.3920313066841863
aI48
aF0.8522418979591654
aI64
aI84
aF0.2753634452223357
aF0.5098660537554498
aI26
asbag1
(g10
g3
Ntp4595
Rp4596
(dp4597
g14
(lp4598
I2
aI1
aF0.14645615926916133
aI23
aF0.4716847017576661
aI422
aI80
aF0.6752684033521564
aF0.20897466961463762
aI369
asbag1
(g10
g3
Ntp4599
Rp4600
(dp4601
g14
(lp4602
I1
aI1
aF0.3754149429891164
aI85
aF0.48221012842685806
aI113
aI20
aF0.8123844539703172
aF0.8185426438986907
aI469
asbasg20
I20
sbI-50
tp4603
a(g1
(g2
g3
Ntp4604
Rp4605
(dp4606
g7
I128
sg8
(lp4607
g1
(g10
g3
Ntp4608
Rp4609
(dp4610
g14
(lp4611
I128
aI1
aF0.10451673494615843
aI56
aF0.09715490170054764
aI433
aI25
aF0.6431458721302327
aF0.945481773115913
aI425
asbag1
(g10
g3
Ntp4612
Rp4613
(dp4614
g14
(lp4615
I1
aI1
aF0.497650952944683
aI32
aF0.09124322579065436
aI143
aI20
aF0.640730113476435
aF0.8983551340044761
aI89
asbasg20
I20
sbg21
(g25
S'?\x89m\x90\x9ec\xf8?'
p4616
tp4617
Rp4618
tp4619
a(g1
(g2
g3
Ntp4620
Rp4621
(dp4622
g7
I128
sg8
(lp4623
g1
(g10
g3
Ntp4624
Rp4625
(dp4626
g14
(lp4627
I128
aI16
aF0.5684675154901244
aI95
aF0.7025167047507926
aI187
aI48
aF0.1291638654532994
aF0.7004225648715313
aI198
asbag1
(g10
g3
Ntp4628
Rp4629
(dp4630
g14
(lp4631
I16
aI1
aF0.8943576193694629
aI24
aF0.6482625495303137
aI493
aI87
aF0.6661669582264593
aF0.48186261083003945
aI88
asbag1
(g10
g3
Ntp4632
Rp4633
(dp4634
g14
(lp4635
I1
aI1
aF0.782296469842808
aI71
aF0.0718437934359234
aI377
aI20
aF0.25255321971940725
aF0.5539015647120532
aI393
asbasg20
I20
sbI-50
tp4636
a(g1
(g2
g3
Ntp4637
Rp4638
(dp4639
g7
I128
sg8
(lp4640
g1
(g10
g3
Ntp4641
Rp4642
(dp4643
g14
(lp4644
I128
aI64
aF0.6089175743342584
aI72
aF0.30602022018626396
aI364
aI84
aF0.044021497023790546
aF0.7206715256394015
aI478
asbag1
(g10
g3
Ntp4645
Rp4646
(dp4647
g14
(lp4648
I64
aI64
aF0.9350601600340573
aI40
aF0.5970167385137266
aI4
aI108
aF0.3613975854386845
aF0.9743465434210251
aI302
asbag1
(g10
g3
Ntp4649
Rp4650
(dp4651
g14
(lp4652
I64
aI64
aF0.5902372233076357
aI15
aF0.49711957509342675
aI281
aI145
aF0.08907367955235468
aF0.5842123606955651
aI382
asbag1
(g10
g3
Ntp4653
Rp4654
(dp4655
g14
(lp4656
I64
aI64
aF0.7552762664526586
aI99
aF0.4973187769568187
aI135
aI164
aF0.7493458312010381
aF0.6980276081933049
aI161
asbag1
(g10
g3
Ntp4657
Rp4658
(dp4659
g14
(lp4660
I64
aI64
aF0.018052924004361537
aI94
aF0.08439561899356585
aI424
aI113
aF0.3608708240795774
aF0.791810169236953
aI146
asbag1
(g10
g3
Ntp4661
Rp4662
(dp4663
g14
(lp4664
I64
aI32
aF0.11422423058313824
aI82
aF0.08866977444931734
aI260
aI127
aF0.1088715264282768
aF0.8818981178843426
aI34
asbag1
(g10
g3
Ntp4665
Rp4666
(dp4667
g14
(lp4668
I32
aI4
aF0.6932495346507545
aI15
aF0.36015103951639227
aI412
aI53
aF0.5044170549458437
aF0.6251575565609637
aI88
asbag1
(g10
g3
Ntp4669
Rp4670
(dp4671
g14
(lp4672
I4
aI2
aF0.6499370286953158
aI35
aF0.3476400628274302
aI80
aI96
aF0.22921440350767008
aF0.5432334160683077
aI75
asbag1
(g10
g3
Ntp4673
Rp4674
(dp4675
g14
(lp4676
I2
aI1
aF0.22825365994502456
aI61
aF0.7469484143076888
aI185
aI45
aF0.2025479621345041
aF0.641462319123031
aI142
asbag1
(g10
g3
Ntp4677
Rp4678
(dp4679
g14
(lp4680
I1
aI1
aF0.25959520483833265
aI21
aF0.783158933148141
aI79
aI20
aF0.42970688636972054
aF0.7837120104646456
aI337
asbasg20
I20
sbI-50
tp4681
a(g1
(g2
g3
Ntp4682
Rp4683
(dp4684
g7
I128
sg8
(lp4685
g1
(g10
g3
Ntp4686
Rp4687
(dp4688
g14
(lp4689
I128
aI4
aF0.11003642967936067
aI75
aF0.6711411543993495
aI424
aI98
aF0.8541909849054767
aF0.1541489494641647
aI83
asbag1
(g10
g3
Ntp4690
Rp4691
(dp4692
g14
(lp4693
I4
aI4
aF0.9267460328027894
aI93
aF0.7740480467587355
aI431
aI71
aF0.5550421289277219
aF0.7214757671467878
aI11
asbag1
(g10
g3
Ntp4694
Rp4695
(dp4696
g14
(lp4697
I4
aI1
aF0.46330742190168595
aI85
aF0.6783836609265805
aI118
aI58
aF0.1833115500562139
aF0.8477047128304439
aI457
asbag1
(g10
g3
Ntp4698
Rp4699
(dp4700
g14
(lp4701
I1
aI1
aF0.4103431304829488
aI19
aF0.14481392019623507
aI238
aI20
aF0.8282856135332087
aF0.25357395068918065
aI441
asbasg20
I20
sbg21
(g25
S'\x00\x00\x00\x00\x00\x00\x00\xc0'
p4702
tp4703
Rp4704
tp4705
a(g1
(g2
g3
Ntp4706
Rp4707
(dp4708
g7
I128
sg8
(lp4709
g1
(g10
g3
Ntp4710
Rp4711
(dp4712
g14
(lp4713
I128
aI8
aF0.0176348201431491
aI25
aF0.17748188596394687
aI111
aI20
aF0.804749069717075
aF0.30712879680673877
aI164
asbag1
(g10
g3
Ntp4714
Rp4715
(dp4716
g14
(lp4717
I8
aI8
aF0.9564344690812423
aI37
aF0.20000629748662213
aI421
aI92
aF0.22108341584213875
aF0.6936084910211511
aI478
asbag1
(g10
g3
Ntp4718
Rp4719
(dp4720
g14
(lp4721
I8
aI1
aF0.4589711349116813
aI51
aF0.4967490073910499
aI107
aI40
aF0.40336240802950096
aF0.5538187131490381
aI358
asbag1
(g10
g3
Ntp4722
Rp4723
(dp4724
g14
(lp4725
I1
aI1
aF0.7201973052264213
aI40
aF0.7695407422801424
aI15
aI20
aF0.6264042508861508
aF0.7934263360651039
aI373
asbasg20
I20
sbg21
(g25
S'\xfa\xdfy\x13\xc3\xad\xde\xbf'
p4726
tp4727
Rp4728
tp4729
a(g1
(g2
g3
Ntp4730
Rp4731
(dp4732
g7
I128
sg8
(lp4733
g1
(g10
g3
Ntp4734
Rp4735
(dp4736
g14
(lp4737
I128
aI4
aF0.975154982162802
aI79
aF0.8902480750287081
aI487
aI42
aF0.4615778862069373
aF0.4361747514605093
aI345
asbag1
(g10
g3
Ntp4738
Rp4739
(dp4740
g14
(lp4741
I4
aI4
aF0.45219788481974177
aI61
aF0.013526963105915613
aI116
aI88
aF0.18134824138488592
aF0.9175623323963975
aI6
asbag1
(g10
g3
Ntp4742
Rp4743
(dp4744
g14
(lp4745
I4
aI1
aF0.9456863310587296
aI84
aF0.6095757579639162
aI269
aI46
aF0.06205577935110507
aF0.9771201589075853
aI494
asbag1
(g10
g3
Ntp4746
Rp4747
(dp4748
g14
(lp4749
I1
aI1
aF0.22728535708432662
aI66
aF0.8207627961319554
aI293
aI20
aF0.3868913019197908
aF0.45318645552294634
aI307
asbasg20
I20
sbg21
(g25
S'\x00\x00\x00\x00\x00\x00\x00\xc0'
p4750
tp4751
Rp4752
tp4753
a(g1
(g2
g3
Ntp4754
Rp4755
(dp4756
g7
I128
sg8
(lp4757
g1
(g10
g3
Ntp4758
Rp4759
(dp4760
g14
(lp4761
I128
aI16
aF0.9569268010182923
aI19
aF0.5282480624637811
aI183
aI99
aF0.939083810678231
aF0.3062921309585457
aI197
asbag1
(g10
g3
Ntp4762
Rp4763
(dp4764
g14
(lp4765
I16
aI2
aF0.770480410238789
aI37
aF0.7997764334048356
aI211
aI72
aF0.33732828877478804
aF0.4823743254636934
aI156
asbag1
(g10
g3
Ntp4766
Rp4767
(dp4768
g14
(lp4769
I2
aI1
aF0.5455032344984715
aI100
aF0.8528754073275057
aI178
aI77
aF0.5449198139779536
aF0.608591376539412
aI171
asbag1
(g10
g3
Ntp4770
Rp4771
(dp4772
g14
(lp4773
I1
aI1
aF0.9304091905976408
aI69
aF0.2453188523535027
aI181
aI20
aF0.787159460332998
aF0.7930538077562427
aI54
asbasg20
I20
sbg21
(g25
S'\\\x15\xecd\xd9\xeb\xf6\xbf'
p4774
tp4775
Rp4776
tp4777
a(g1
(g2
g3
Ntp4778
Rp4779
(dp4780
g7
I128
sg8
(lp4781
g1
(g10
g3
Ntp4782
Rp4783
(dp4784
g14
(lp4785
I128
aI4
aF0.9793033647923954
aI24
aF0.7014050933261632
aI209
aI97
aF0.5766816125550425
aF0.8591261294506134
aI306
asbag1
(g10
g3
Ntp4786
Rp4787
(dp4788
g14
(lp4789
I4
aI4
aF0.08172037022923684
aI40
aF0.49097355821936484
aI189
aI91
aF0.7288020206878049
aF0.752634911773203
aI315
asbag1
(g10
g3
Ntp4790
Rp4791
(dp4792
g14
(lp4793
I4
aI1
aF0.602470180348962
aI97
aF0.8123138920619882
aI263
aI98
aF0.11808753355985113
aF0.8410710082606037
aI390
asbag1
(g10
g3
Ntp4794
Rp4795
(dp4796
g14
(lp4797
I1
aI1
aF0.6032345017152084
aI96
aF0.011826343735019229
aI447
aI20
aF0.09089876386434892
aF0.14546689491074627
aI483
asbasg20
I20
sbg21
(g25
S'\x1evQ\x82\x96{\xfd\xbf'
p4798
tp4799
Rp4800
tp4801
a(g1
(g2
g3
Ntp4802
Rp4803
(dp4804
g7
I128
sg8
(lp4805
g1
(g10
g3
Ntp4806
Rp4807
(dp4808
g14
(lp4809
I128
aI64
aF0.6270428335423769
aI36
aF0.6732101893472072
aI448
aI132
aF0.6066754802831642
aF0.27408345741916973
aI493
asbag1
(g10
g3
Ntp4810
Rp4811
(dp4812
g14
(lp4813
I64
aI32
aF0.2514035129658131
aI71
aF0.39752181204338277
aI163
aI108
aF0.5008321670334077
aF0.07073145438339179
aI96
asbag1
(g10
g3
Ntp4814
Rp4815
(dp4816
g14
(lp4817
I32
aI8
aF0.11279820449259348
aI48
aF0.3356120932588528
aI416
aI29
aF0.8882076912350506
aF0.5076626034096402
aI116
asbag1
(g10
g3
Ntp4818
Rp4819
(dp4820
g14
(lp4821
I8
aI2
aF0.00479985403389549
aI94
aF0.5569240843724458
aI86
aI44
aF0.3422791689501449
aF0.7452930712346475
aI109
asbag1
(g10
g3
Ntp4822
Rp4823
(dp4824
g14
(lp4825
I2
aI2
aF0.42331364958158824
aI72
aF0.18377971791508996
aI317
aI52
aF0.1945304823968932
aF0.8125463797402348
aI289
asbag1
(g10
g3
Ntp4826
Rp4827
(dp4828
g14
(lp4829
I2
aI1
aF0.07381786298056103
aI96
aF0.22192252006242696
aI223
aI2
aF0.8582460003880684
aF0.8286803337517122
aI86
asbag1
(g10
g3
Ntp4830
Rp4831
(dp4832
g14
(lp4833
I1
aI1
aF0.13703832063367094
aI67
aF0.11177241774188929
aI235
aI20
aF0.21060560127886452
aF0.9732609572068176
aI230
asbasg20
I20
sbI-50
tp4834
a(g1
(g2
g3
Ntp4835
Rp4836
(dp4837
g7
I128
sg8
(lp4838
g1
(g10
g3
Ntp4839
Rp4840
(dp4841
g14
(lp4842
I128
aI128
aF0.28415187636322414
aI73
aF0.19885226894388697
aI429
aI152
aF0.7422392508912303
aF0.9587933075001488
aI406
asbag1
(g10
g3
Ntp4843
Rp4844
(dp4845
g14
(lp4846
I128
aI16
aF0.9029689456235124
aI96
aF0.4980473154198717
aI136
aI98
aF0.8227918128345768
aF0.9964862062727148
aI21
asbag1
(g10
g3
Ntp4847
Rp4848
(dp4849
g14
(lp4850
I16
aI1
aF0.276807219885972
aI36
aF0.22864170744463286
aI63
aI31
aF0.4651455501002033
aF0.6058890028286226
aI393
asbag1
(g10
g3
Ntp4851
Rp4852
(dp4853
g14
(lp4854
I1
aI1
aF0.16694985238381777
aI55
aF0.6972579366236784
aI437
aI20
aF0.42360886784599927
aF0.24603532836827968
aI371
asbasg20
I20
sbI-50
tp4855
a(g1
(g2
g3
Ntp4856
Rp4857
(dp4858
g7
I128
sg8
(lp4859
g1
(g10
g3
Ntp4860
Rp4861
(dp4862
g14
(lp4863
I128
aI32
aF0.3331647540626217
aI99
aF0.5672589524626631
aI222
aI40
aF0.5947358415418749
aF0.6917278898554935
aI21
asbag1
(g10
g3
Ntp4864
Rp4865
(dp4866
g14
(lp4867
I32
aI4
aF0.3212643304276066
aI91
aF0.5891102724684935
aI478
aI78
aF0.6015863946066429
aF0.15117632000543557
aI248
asbag1
(g10
g3
Ntp4868
Rp4869
(dp4870
g14
(lp4871
I4
aI1
aF0.365447608354293
aI73
aF0.9492032534352371
aI16
aI10
aF0.14149985946541566
aF0.43585542412310374
aI220
asbag1
(g10
g3
Ntp4872
Rp4873
(dp4874
g14
(lp4875
I1
aI1
aF0.12740967151960825
aI86
aF0.5200630349352827
aI233
aI20
aF0.5573217315279444
aF0.5749129322599661
aI238
asbasg20
I20
sbI-50
tp4876
a(g1
(g2
g3
Ntp4877
Rp4878
(dp4879
g7
I128
sg8
(lp4880
g1
(g10
g3
Ntp4881
Rp4882
(dp4883
g14
(lp4884
I128
aI128
aF0.9461269495722905
aI93
aF0.041227681668150384
aI182
aI213
aF0.9895077477485867
aF0.15287814757983442
aI126
asbag1
(g10
g3
Ntp4885
Rp4886
(dp4887
g14
(lp4888
I128
aI32
aF0.5207126029724096
aI37
aF0.5609263513305932
aI234
aI129
aF0.7160403719003077
aF0.9341513169459003
aI236
asbag1
(g10
g3
Ntp4889
Rp4890
(dp4891
g14
(lp4892
I32
aI1
aF0.07066619636760296
aI47
aF0.6722445151798717
aI137
aI57
aF0.04849708677215947
aF0.21512125663024184
aI275
asbag1
(g10
g3
Ntp4893
Rp4894
(dp4895
g14
(lp4896
I1
aI1
aF0.07392254366982831
aI81
aF0.5082793239363446
aI77
aI20
aF0.839447381607363
aF0.9212223376038937
aI434
asbasg20
I20
sbI-50
tp4897
a(g1
(g2
g3
Ntp4898
Rp4899
(dp4900
g7
I128
sg8
(lp4901
g1
(g10
g3
Ntp4902
Rp4903
(dp4904
g14
(lp4905
I128
aI4
aF0.4734273668058464
aI81
aF0.010851664841478592
aI391
aI94
aF0.6374769037795178
aF0.12062580365081221
aI443
asbag1
(g10
g3
Ntp4906
Rp4907
(dp4908
g14
(lp4909
I4
aI4
aF0.48134810301392694
aI79
aF0.7397232528196678
aI271
aI78
aF0.19415908355021838
aF0.7609753478678613
aI363
asbag1
(g10
g3
Ntp4910
Rp4911
(dp4912
g14
(lp4913
I4
aI1
aF0.05127607912560761
aI37
aF0.3007683131423444
aI67
aI89
aF0.09777724053294101
aF0.7632753979629323
aI23
asbag1
(g10
g3
Ntp4914
Rp4915
(dp4916
g14
(lp4917
I1
aI1
aF0.19266488168930362
aI57
aF0.5565725091325388
aI154
aI20
aF0.6656258135845433
aF0.7375225522177833
aI298
asbasg20
I20
sbg21
(g25
S'\x00\x00\x00\x00\x00\x00\x00\xc0'
p4918
tp4919
Rp4920
tp4921
a(g1
(g2
g3
Ntp4922
Rp4923
(dp4924
g7
I128
sg8
(lp4925
g1
(g10
g3
Ntp4926
Rp4927
(dp4928
g14
(lp4929
I128
aI1
aF0.9504096454618298
aI75
aF0.4042497120980546
aI191
aI22
aF0.7573073170145831
aF0.2648397093624475
aI440
asbag1
(g10
g3
Ntp4930
Rp4931
(dp4932
g14
(lp4933
I1
aI1
aF0.4183947908968433
aI43
aF0.9975527208605417
aI33
aI20
aF0.9230381008346683
aF0.2950943497840166
aI405
asbasg20
I20
sbg21
(g25
S'$\xa2\xda\x10\xdb\x00\xf4?'
p4934
tp4935
Rp4936
tp4937
a(g1
(g2
g3
Ntp4938
Rp4939
(dp4940
g7
I128
sg8
(lp4941
g1
(g10
g3
Ntp4942
Rp4943
(dp4944
g14
(lp4945
I128
aI64
aF0.6475214448229079
aI65
aF0.07516878998423915
aI63
aI86
aF0.11751642327830558
aF0.8799676754392547
aI394
asbag1
(g10
g3
Ntp4946
Rp4947
(dp4948
g14
(lp4949
I64
aI32
aF0.1324548029895145
aI74
aF0.7332199562780681
aI78
aI65
aF0.5432457285137762
aF0.4363250468805042
aI442
asbag1
(g10
g3
Ntp4950
Rp4951
(dp4952
g14
(lp4953
I32
aI32
aF0.009812714934354094
aI56
aF0.28894726169689655
aI72
aI95
aF0.5344733470854035
aF0.5936928447095196
aI59
asbag1
(g10
g3
Ntp4954
Rp4955
(dp4956
g14
(lp4957
I32
aI8
aF0.4648185894689085
aI36
aF0.7891717924846694
aI37
aI33
aF0.9130423758815206
aF0.5255499993103334
aI211
asbag1
(g10
g3
Ntp4958
Rp4959
(dp4960
g14
(lp4961
I8
aI2
aF0.6792903392532328
aI27
aF0.7533946608046524
aI392
aI3
aF0.048365753310941395
aF0.9173299518601636
aI205
asbag1
(g10
g3
Ntp4962
Rp4963
(dp4964
g14
(lp4965
I2
aI1
aF0.5664424563704588
aI34
aF0.2933803426000565
aI176
aI41
aF0.5945141680813755
aF0.9492162224073208
aI192
asbag1
(g10
g3
Ntp4966
Rp4967
(dp4968
g14
(lp4969
I1
aI1
aF0.7380346899283025
aI48
aF0.22834565507212956
aI2
aI20
aF0.5797886625063373
aF0.46488917768133897
aI379
asbasg20
I20
sbI-50
tp4970
a(g1
(g2
g3
Ntp4971
Rp4972
(dp4973
g7
I128
sg8
(lp4974
g1
(g10
g3
Ntp4975
Rp4976
(dp4977
g14
(lp4978
I128
aI16
aF0.003664695560737341
aI75
aF0.4057700215321679
aI6
aI95
aF0.38287974980443606
aF0.9023238099670153
aI158
asbag1
(g10
g3
Ntp4979
Rp4980
(dp4981
g14
(lp4982
I16
aI2
aF0.2407035578274701
aI95
aF0.42632071016822193
aI405
aI18
aF0.5444024249632996
aF0.5805601625524739
aI331
asbag1
(g10
g3
Ntp4983
Rp4984
(dp4985
g14
(lp4986
I2
aI2
aF0.8182426524310364
aI66
aF0.8993521066744932
aI148
aI79
aF0.7923458472446469
aF0.3134267538046853
aI467
asbag1
(g10
g3
Ntp4987
Rp4988
(dp4989
g14
(lp4990
I2
aI2
aF0.5101345524252022
aI67
aF0.35509277697800845
aI463
aI3
aF0.7034250961268017
aF0.6246991508943344
aI485
asbag1
(g10
g3
Ntp4991
Rp4992
(dp4993
g14
(lp4994
I2
aI2
aF0.44180633082457177
aI94
aF0.32672516155384324
aI493
aI91
aF0.7627313443191335
aF0.9387775654846418
aI495
asbag1
(g10
g3
Ntp4995
Rp4996
(dp4997
g14
(lp4998
I2
aI2
aF0.5389237683310965
aI18
aF0.612541974569811
aI172
aI10
aF0.7705478088993778
aF0.464535992358705
aI372
asbag1
(g10
g3
Ntp4999
Rp5000
(dp5001
g14
(lp5002
I2
aI1
aF0.7030845674709003
aI70
aF0.9453400712673886
aI431
aI67
aF0.5276510724958119
aF0.0003199521174414022
aI369
asbag1
(g10
g3
Ntp5003
Rp5004
(dp5005
g14
(lp5006
I1
aI1
aF0.6129512776349098
aI47
aF0.3755036814475534
aI440
aI20
aF0.579648745335719
aF0.8761588547641345
aI83
asbasg20
I20
sbI-50
tp5007
a(g1
(g2
g3
Ntp5008
Rp5009
(dp5010
g7
I128
sg8
(lp5011
g1
(g10
g3
Ntp5012
Rp5013
(dp5014
g14
(lp5015
I128
aI64
aF0.6747731911492111
aI85
aF0.9634716967356236
aI317
aI102
aF0.7592665803840336
aF0.7510387036525894
aI287
asbag1
(g10
g3
Ntp5016
Rp5017
(dp5018
g14
(lp5019
I64
aI32
aF0.015546478853501244
aI18
aF0.531794709245147
aI461
aI57
aF0.7818790240027697
aF0.19770755594256795
aI112
asbag1
(g10
g3
Ntp5020
Rp5021
(dp5022
g14
(lp5023
I32
aI32
aF0.23219367138201585
aI29
aF0.6472657394167723
aI197
aI120
aF0.44843307227900653
aF0.14516425909606412
aI202
asbag1
(g10
g3
Ntp5024
Rp5025
(dp5026
g14
(lp5027
I32
aI16
aF0.7009843829180571
aI67
aF0.3247869793784327
aI499
aI45
aF0.6498621476034389
aF0.4894359388631693
aI430
asbag1
(g10
g3
Ntp5028
Rp5029
(dp5030
g14
(lp5031
I16
aI2
aF0.716964732050174
aI10
aF0.9036061107041649
aI54
aI98
aF0.4378447083675252
aF0.09382597866076514
aI237
asbag1
(g10
g3
Ntp5032
Rp5033
(dp5034
g14
(lp5035
I2
aI2
aF0.2900819003039893
aI73
aF0.014164723579461747
aI390
aI76
aF0.9610444406988116
aF0.4902650116541106
aI238
asbag1
(g10
g3
Ntp5036
Rp5037
(dp5038
g14
(lp5039
I2
aI2
aF0.1559729468246156
aI30
aF0.5916789126929812
aI24
aI92
aF0.5211859837138665
aF0.023408138944549295
aI56
asbag1
(g10
g3
Ntp5040
Rp5041
(dp5042
g14
(lp5043
I2
aI1
aF0.7034053975034795
aI41
aF0.4291024762850437
aI107
aI78
aF0.6704237446554802
aF0.757140517669114
aI110
asbag1
(g10
g3
Ntp5044
Rp5045
(dp5046
g14
(lp5047
I1
aI1
aF0.3033407562567324
aI72
aF0.189191087619485
aI466
aI20
aF0.4177131608249819
aF0.032617272199015335
aI131
asbasg20
I20
sbI-50
tp5048
a(g1
(g2
g3
Ntp5049
Rp5050
(dp5051
g7
I128
sg8
(lp5052
g1
(g10
g3
Ntp5053
Rp5054
(dp5055
g14
(lp5056
I128
aI4
aF0.626150057938286
aI19
aF0.4450821009954653
aI400
aI47
aF0.15491415951705545
aF0.31524656845241006
aI237
asbag1
(g10
g3
Ntp5057
Rp5058
(dp5059
g14
(lp5060
I4
aI1
aF0.5967576082842554
aI51
aF0.5693147302427517
aI346
aI25
aF0.49850726693195546
aF0.6488608260531689
aI117
asbag1
(g10
g3
Ntp5061
Rp5062
(dp5063
g14
(lp5064
I1
aI1
aF0.5920225416929391
aI100
aF0.6245310671096941
aI37
aI20
aF0.2437774599424969
aF0.8711222026539265
aI482
asbasg20
I20
sbg21
(g25
S' \x80\x0f\xda\xeb\xa7\x9a\xbf'
p5065
tp5066
Rp5067
tp5068
a(g1
(g2
g3
Ntp5069
Rp5070
(dp5071
g7
I128
sg8
(lp5072
g1
(g10
g3
Ntp5073
Rp5074
(dp5075
g14
(lp5076
I128
aI64
aF0.4677538222384925
aI87
aF0.2609353376496867
aI437
aI78
aF0.945320721355731
aF0.48678394936058766
aI333
asbag1
(g10
g3
Ntp5077
Rp5078
(dp5079
g14
(lp5080
I64
aI64
aF0.8353580501709049
aI46
aF0.04010422385611223
aI184
aI156
aF0.45480618570500464
aF0.5268454848898017
aI168
asbag1
(g10
g3
Ntp5081
Rp5082
(dp5083
g14
(lp5084
I64
aI2
aF0.06465729553062005
aI81
aF0.1047073603138714
aI328
aI38
aF0.04668357337014173
aF0.3290752495045375
aI301
asbag1
(g10
g3
Ntp5085
Rp5086
(dp5087
g14
(lp5088
I2
aI1
aF0.09744431392749087
aI33
aF0.9519044135681721
aI306
aI63
aF0.9774444993643348
aF0.10093586243104846
aI490
asbag1
(g10
g3
Ntp5089
Rp5090
(dp5091
g14
(lp5092
I1
aI1
aF0.04933313761037694
aI17
aF0.9962892117101153
aI423
aI20
aF0.7368663994100807
aF0.4757453570112654
aI376
asbasg20
I20
sbI-50
tp5093
a(g1
(g2
g3
Ntp5094
Rp5095
(dp5096
g7
I128
sg8
(lp5097
g1
(g10
g3
Ntp5098
Rp5099
(dp5100
g14
(lp5101
I128
aI32
aF0.8678223619049319
aI17
aF0.8321178751863599
aI321
aI55
aF0.6269886963693155
aF0.8820958684381207
aI141
asbag1
(g10
g3
Ntp5102
Rp5103
(dp5104
g14
(lp5105
I32
aI16
aF0.32951127923076196
aI20
aF0.7936385392314522
aI161
aI94
aF0.5838317064322395
aF0.4833192622151491
aI248
asbag1
(g10
g3
Ntp5106
Rp5107
(dp5108
g14
(lp5109
I16
aI1
aF0.6719973760017324
aI35
aF0.2735929166664046
aI207
aI98
aF0.2009469697698556
aF0.40447003486267175
aI454
asbag1
(g10
g3
Ntp5110
Rp5111
(dp5112
g14
(lp5113
I1
aI1
aF0.3987711527021486
aI34
aF0.04005659666664296
aI80
aI20
aF0.37595187820889175
aF0.2445271734196358
aI357
asbasg20
I20
sbI-50
tp5114
a(g1
(g2
g3
Ntp5115
Rp5116
(dp5117
g7
I128
sg8
(lp5118
g1
(g10
g3
Ntp5119
Rp5120
(dp5121
g14
(lp5122
I128
aI32
aF0.18261896629170205
aI62
aF0.3656757328175245
aI298
aI84
aF0.9481930558911429
aF0.4546937758810349
aI178
asbag1
(g10
g3
Ntp5123
Rp5124
(dp5125
g14
(lp5126
I32
aI32
aF0.48935646892129836
aI53
aF0.14074489713000882
aI49
aI94
aF0.09177069131509197
aF0.0742566464129375
aI156
asbag1
(g10
g3
Ntp5127
Rp5128
(dp5129
g14
(lp5130
I32
aI2
aF0.18155899003002907
aI21
aF0.6411085373188679
aI325
aI68
aF0.8901684374357173
aF0.6874679221068686
aI131
asbag1
(g10
g3
Ntp5131
Rp5132
(dp5133
g14
(lp5134
I2
aI2
aF0.6149802567985374
aI56
aF0.7404760979918485
aI178
aI11
aF0.43952945873855576
aF0.044495489288802204
aI147
asbag1
(g10
g3
Ntp5135
Rp5136
(dp5137
g14
(lp5138
I2
aI2
aF0.3747442320117699
aI67
aF0.18454517712521867
aI343
aI97
aF0.4868545389354523
aF0.9470340668237661
aI459
asbag1
(g10
g3
Ntp5139
Rp5140
(dp5141
g14
(lp5142
I2
aI2
aF0.2941809553490352
aI50
aF0.05950063577128861
aI449
aI99
aF0.1043692375160441
aF0.1653691185679823
aI156
asbag1
(g10
g3
Ntp5143
Rp5144
(dp5145
g14
(lp5146
I2
aI1
aF0.35995161638117346
aI71
aF0.4849792792799592
aI113
aI17
aF0.7148032743313358
aF0.5662686127717322
aI185
asbag1
(g10
g3
Ntp5147
Rp5148
(dp5149
g14
(lp5150
I1
aI1
aF0.9144520854558291
aI28
aF0.9349098205125363
aI298
aI20
aF0.40450191286891235
aF0.21647820764498926
aI406
asbasg20
I20
sbI-50
tp5151
a(g1
(g2
g3
Ntp5152
Rp5153
(dp5154
g7
I128
sg8
(lp5155
g1
(g10
g3
Ntp5156
Rp5157
(dp5158
g14
(lp5159
I128
aI16
aF0.045923309461525785
aI19
aF0.7068895347919868
aI191
aI106
aF0.22906994248853263
aF0.39322701734051424
aI261
asbag1
(g10
g3
Ntp5160
Rp5161
(dp5162
g14
(lp5163
I16
aI2
aF0.2645498556856689
aI39
aF0.8816785923284255
aI228
aI31
aF0.14577833863921852
aF0.5612423827515926
aI281
asbag1
(g10
g3
Ntp5164
Rp5165
(dp5166
g14
(lp5167
I2
aI2
aF0.817440210774974
aI16
aF0.9370435267521829
aI455
aI84
aF0.10710146367792006
aF0.5807749679102052
aI231
asbag1
(g10
g3
Ntp5168
Rp5169
(dp5170
g14
(lp5171
I2
aI2
aF0.3450061153321625
aI84
aF0.3854431652638326
aI318
aI76
aF0.8198007239732122
aF0.9132627402375529
aI23
asbag1
(g10
g3
Ntp5172
Rp5173
(dp5174
g14
(lp5175
I2
aI1
aF0.7847256202646532
aI14
aF0.3333241933111408
aI276
aI18
aF0.9453781389331908
aF0.5618518365068152
aI148
asbag1
(g10
g3
Ntp5176
Rp5177
(dp5178
g14
(lp5179
I1
aI1
aF0.9667524594327943
aI79
aF0.03975611172592253
aI54
aI20
aF0.6869246928671676
aF0.4543235484987981
aI229
asbasg20
I20
sbI-50
tp5180
a(g1
(g2
g3
Ntp5181
Rp5182
(dp5183
g7
I128
sg8
(lp5184
g1
(g10
g3
Ntp5185
Rp5186
(dp5187
g14
(lp5188
I128
aI2
aF0.7829768335256876
aI23
aF0.32127396002609654
aI230
aI100
aF0.6641921457721895
aF0.46360482611728704
aI53
asbag1
(g10
g3
Ntp5189
Rp5190
(dp5191
g14
(lp5192
I2
aI2
aF0.062420653659779446
aI35
aF0.32805958842519567
aI356
aI30
aF0.9879291867344089
aF0.8281053048465022
aI195
asbag1
(g10
g3
Ntp5193
Rp5194
(dp5195
g14
(lp5196
I2
aI2
aF0.020434490303907538
aI89
aF0.6729861150349489
aI156
aI35
aF0.16025690869388598
aF0.13257455008880048
aI307
asbag1
(g10
g3
Ntp5197
Rp5198
(dp5199
g14
(lp5200
I2
aI2
aF0.6939642996227012
aI31
aF0.28919012097235275
aI231
aI20
aF0.21375770281801754
aF0.58161545841529
aI499
asbag1
(g10
g3
Ntp5201
Rp5202
(dp5203
g14
(lp5204
I2
aI1
aF0.4886372588645478
aI48
aF0.6524492592714283
aI481
aI44
aF0.9460929731536392
aF0.18140464142435686
aI186
asbag1
(g10
g3
Ntp5205
Rp5206
(dp5207
g14
(lp5208
I1
aI1
aF0.1427838474627946
aI27
aF0.24433396275318453
aI329
aI20
aF0.5028972775248648
aF0.6872941763716828
aI359
asbasg20
I20
sbg21
(g25
S'p\xf5`~\x1a\x1d\xd0\xbf'
p5209
tp5210
Rp5211
tp5212
a(g1
(g2
g3
Ntp5213
Rp5214
(dp5215
g7
I128
sg8
(lp5216
g1
(g10
g3
Ntp5217
Rp5218
(dp5219
g14
(lp5220
I128
aI64
aF0.886868069593812
aI71
aF0.9162129605329897
aI64
aI162
aF0.06093712226546988
aF0.3484723664667482
aI350
asbag1
(g10
g3
Ntp5221
Rp5222
(dp5223
g14
(lp5224
I64
aI8
aF0.570870350749069
aI69
aF0.9952423747238244
aI477
aI12
aF0.9616795781034246
aF0.173774643135425
aI485
asbag1
(g10
g3
Ntp5225
Rp5226
(dp5227
g14
(lp5228
I8
aI8
aF0.18210039354395846
aI56
aF0.393074026601562
aI262
aI63
aF0.07229955414284239
aF0.16565051584243606
aI193
asbag1
(g10
g3
Ntp5229
Rp5230
(dp5231
g14
(lp5232
I8
aI2
aF0.9565872515256645
aI11
aF0.5640823581714187
aI183
aI93
aF0.643055098041944
aF0.370815898540962
aI272
asbag1
(g10
g3
Ntp5233
Rp5234
(dp5235
g14
(lp5236
I2
aI1
aF0.2406902198177734
aI21
aF0.689232858972571
aI374
aI39
aF0.2643991115130063
aF0.8510788853092732
aI414
asbag1
(g10
g3
Ntp5237
Rp5238
(dp5239
g14
(lp5240
I1
aI1
aF0.7890209489839398
aI46
aF0.8807972360847166
aI474
aI20
aF0.90126797308843
aF0.9011385664548144
aI225
asbasg20
I20
sbI-50
tp5241
a(g1
(g2
g3
Ntp5242
Rp5243
(dp5244
g7
I128
sg8
(lp5245
g1
(g10
g3
Ntp5246
Rp5247
(dp5248
g14
(lp5249
I128
aI4
aF0.6762660029830654
aI91
aF0.13501602614908614
aI62
aI102
aF0.7749414397670631
aF0.552700629053484
aI8
asbag1
(g10
g3
Ntp5250
Rp5251
(dp5252
g14
(lp5253
I4
aI2
aF0.9131669720869863
aI82
aF0.0429643051637264
aI61
aI26
aF0.515825998921276
aF0.4513220049537434
aI410
asbag1
(g10
g3
Ntp5254
Rp5255
(dp5256
g14
(lp5257
I2
aI2
aF0.0973558771250409
aI38
aF0.5989549508686131
aI141
aI90
aF0.3771893849974963
aF0.5082830018240463
aI102
asbag1
(g10
g3
Ntp5258
Rp5259
(dp5260
g14
(lp5261
I2
aI2
aF0.47792000833254833
aI33
aF0.9600807508374575
aI331
aI93
aF0.3514826011122988
aF0.23475363545908678
aI296
asbag1
(g10
g3
Ntp5262
Rp5263
(dp5264
g14
(lp5265
I2
aI1
aF0.4209058143148816
aI40
aF0.6461171211681151
aI175
aI41
aF0.04536623174261345
aF0.02631493317592004
aI67
asbag1
(g10
g3
Ntp5266
Rp5267
(dp5268
g14
(lp5269
I1
aI1
aF0.5005240616096598
aI10
aF0.08075860328922457
aI298
aI20
aF0.354082604626886
aF0.046081772730312665
aI471
asbasg20
I20
sbg21
(g25
S'\x00\x00\x00\x00\x00\x00\x00\xc0'
p5270
tp5271
Rp5272
tp5273
a(g1
(g2
g3
Ntp5274
Rp5275
(dp5276
g7
I128
sg8
(lp5277
g1
(g10
g3
Ntp5278
Rp5279
(dp5280
g14
(lp5281
I128
aI16
aF0.7029280907647036
aI29
aF0.7648598974890065
aI83
aI51
aF0.283190046173474
aF0.21805885069995978
aI218
asbag1
(g10
g3
Ntp5282
Rp5283
(dp5284
g14
(lp5285
I16
aI4
aF0.48632033055390167
aI72
aF0.3212856062500907
aI276
aI77
aF0.3551205515447371
aF0.05018858748375776
aI392
asbag1
(g10
g3
Ntp5286
Rp5287
(dp5288
g14
(lp5289
I4
aI1
aF0.8476811844531555
aI53
aF0.7141447788038018
aI97
aI70
aF0.7479355249691619
aF0.6796004629179583
aI350
asbag1
(g10
g3
Ntp5290
Rp5291
(dp5292
g14
(lp5293
I1
aI1
aF0.4120368337562377
aI12
aF0.0348187813988281
aI487
aI20
aF0.08765674800102163
aF0.4786798122435981
aI263
asbasg20
I20
sbg21
(g25
S'\x9f\xff \x9e\x95\xb7\xf7\xbf'
p5294
tp5295
Rp5296
tp5297
a(g1
(g2
g3
Ntp5298
Rp5299
(dp5300
g7
I128
sg8
(lp5301
g1
(g10
g3
Ntp5302
Rp5303
(dp5304
g14
(lp5305
I128
aI2
aF0.6965686208198277
aI100
aF0.7243504954295403
aI284
aI58
aF0.7387161677371342
aF0.017213454738002842
aI217
asbag1
(g10
g3
Ntp5306
Rp5307
(dp5308
g14
(lp5309
I2
aI1
aF0.38634128347653407
aI52
aF0.4000116695499434
aI396
aI61
aF0.3480170739299173
aF0.8011627469034944
aI286
asbag1
(g10
g3
Ntp5310
Rp5311
(dp5312
g14
(lp5313
I1
aI1
aF0.6782023705781317
aI74
aF0.8873913736235952
aI54
aI20
aF0.7067502877529745
aF0.1349229664949182
aI401
asbasg20
I20
sbg21
(g25
S'\xebn\x8fv \xfc\xc6?'
p5314
tp5315
Rp5316
tp5317
a(g1
(g2
g3
Ntp5318
Rp5319
(dp5320
g7
I128
sg8
(lp5321
g1
(g10
g3
Ntp5322
Rp5323
(dp5324
g14
(lp5325
I128
aI64
aF0.0852241775402528
aI54
aF0.9259462335306615
aI307
aI107
aF0.5859205684224823
aF0.27833687915511507
aI470
asbag1
(g10
g3
Ntp5326
Rp5327
(dp5328
g14
(lp5329
I64
aI2
aF0.9410921015026563
aI99
aF0.17984602105298098
aI402
aI39
aF0.275121354796669
aF0.9373028532806779
aI408
asbag1
(g10
g3
Ntp5330
Rp5331
(dp5332
g14
(lp5333
I2
aI2
aF0.4388308177583181
aI97
aF0.45947119888074406
aI479
aI44
aF0.900924192944272
aF0.1307845149215403
aI59
asbag1
(g10
g3
Ntp5334
Rp5335
(dp5336
g14
(lp5337
I2
aI2
aF0.9066265733875686
aI84
aF0.2387026607789099
aI113
aI12
aF0.018916006197888136
aF0.801878685715986
aI462
asbag1
(g10
g3
Ntp5338
Rp5339
(dp5340
g14
(lp5341
I2
aI1
aF0.6198240654098355
aI39
aF0.1968497393301989
aI23
aI49
aF0.7142566871836172
aF0.42680652288564425
aI344
asbag1
(g10
g3
Ntp5342
Rp5343
(dp5344
g14
(lp5345
I1
aI1
aF0.4559217024797563
aI53
aF0.43265597408604184
aI445
aI20
aF0.7611404120293856
aF0.91475617906497
aI78
asbasg20
I20
sbI-50
tp5346
a(g1
(g2
g3
Ntp5347
Rp5348
(dp5349
g7
I128
sg8
(lp5350
g1
(g10
g3
Ntp5351
Rp5352
(dp5353
g14
(lp5354
I128
aI16
aF0.8216431062992928
aI89
aF0.9757945238025493
aI382
aI32
aF0.41029537187313103
aF0.6926590429240418
aI459
asbag1
(g10
g3
Ntp5355
Rp5356
(dp5357
g14
(lp5358
I16
aI4
aF0.2863519383449672
aI92
aF0.47379716140424477
aI190
aI43
aF0.00410897926901832
aF0.9560674349063091
aI8
asbag1
(g10
g3
Ntp5359
Rp5360
(dp5361
g14
(lp5362
I4
aI1
aF0.6011568857579476
aI13
aF0.9341235588488387
aI390
aI101
aF0.49071934320755284
aF0.9222587208782321
aI9
asbag1
(g10
g3
Ntp5363
Rp5364
(dp5365
g14
(lp5366
I1
aI1
aF0.3971879428430788
aI100
aF0.6062789419098668
aI110
aI20
aF0.334131111766537
aF0.9509992425333119
aI54
asbasg20
I20
sbI-50
tp5367
a(g1
(g2
g3
Ntp5368
Rp5369
(dp5370
g7
I128
sg8
(lp5371
g1
(g10
g3
Ntp5372
Rp5373
(dp5374
g14
(lp5375
I128
aI4
aF0.12274230523429419
aI57
aF0.5704232929760512
aI194
aI75
aF0.3579119741138037
aF0.7311228719539784
aI377
asbag1
(g10
g3
Ntp5376
Rp5377
(dp5378
g14
(lp5379
I4
aI4
aF0.5561922228799454
aI81
aF0.1474289019728835
aI418
aI19
aF0.8584495279201814
aF0.9366859399543803
aI67
asbag1
(g10
g3
Ntp5380
Rp5381
(dp5382
g14
(lp5383
I4
aI1
aF0.44570144861403516
aI38
aF0.21369134634837073
aI482
aI75
aF0.2939580837232256
aF0.5220326610824565
aI328
asbag1
(g10
g3
Ntp5384
Rp5385
(dp5386
g14
(lp5387
I1
aI1
aF0.04608404994566395
aI72
aF0.15366677691132558
aI403
aI20
aF0.9227332424702472
aF0.8794352004015871
aI218
asbasg20
I20
sbg21
(g25
S'\xd76\x15D\x1e\xce\xd4\xbf'
p5388
tp5389
Rp5390
tp5391
a(g1
(g2
g3
Ntp5392
Rp5393
(dp5394
g7
I128
sg8
(lp5395
g1
(g10
g3
Ntp5396
Rp5397
(dp5398
g14
(lp5399
I128
aI8
aF0.8077622043367166
aI85
aF0.10077203753381958
aI294
aI31
aF0.3534538593449186
aF0.7699710224110535
aI422
asbag1
(g10
g3
Ntp5400
Rp5401
(dp5402
g14
(lp5403
I8
aI4
aF0.47224320287230914
aI48
aF0.9741266872959831
aI173
aI76
aF0.864884529440713
aF0.5955082023354026
aI91
asbag1
(g10
g3
Ntp5404
Rp5405
(dp5406
g14
(lp5407
I4
aI2
aF0.45850468052512594
aI63
aF0.18536185443253383
aI392
aI93
aF0.003998737313972045
aF0.3701947413828549
aI318
asbag1
(g10
g3
Ntp5408
Rp5409
(dp5410
g14
(lp5411
I2
aI2
aF0.5043314743801255
aI34
aF0.6570063065917564
aI279
aI74
aF0.4925039660336755
aF0.3807125979717916
aI28
asbag1
(g10
g3
Ntp5412
Rp5413
(dp5414
g14
(lp5415
I2
aI2
aF0.3296874522028884
aI75
aF0.44476144457260525
aI16
aI72
aF0.9444394800061494
aF0.4251806882083562
aI331
asbag1
(g10
g3
Ntp5416
Rp5417
(dp5418
g14
(lp5419
I2
aI2
aF0.5251255248416767
aI82
aF0.6558366883791862
aI308
aI89
aF0.8853185745241435
aF0.9638604554021546
aI455
asbag1
(g10
g3
Ntp5420
Rp5421
(dp5422
g14
(lp5423
I2
aI1
aF0.3650646853162993
aI75
aF0.7898515164323063
aI389
aI22
aF0.9475437819171397
aF0.8535173805978719
aI68
asbag1
(g10
g3
Ntp5424
Rp5425
(dp5426
g14
(lp5427
I1
aI1
aF0.46009318774042385
aI45
aF0.7378698170740707
aI223
aI20
aF0.12337564662664391
aF0.4151215966234001
aI390
asbasg20
I20
sbg21
(g25
S'\xee\x99\x1e\xa1\x06\xbf\xe8\xbf'
p5428
tp5429
Rp5430
tp5431
a(g1
(g2
g3
Ntp5432
Rp5433
(dp5434
g7
I128
sg8
(lp5435
g1
(g10
g3
Ntp5436
Rp5437
(dp5438
g14
(lp5439
I128
aI128
aF0.6496714166233896
aI44
aF0.30402099775325786
aI471
aI168
aF0.004827164363437886
aF0.07587354230615218
aI34
asbag1
(g10
g3
Ntp5440
Rp5441
(dp5442
g14
(lp5443
I128
aI32
aF0.04376414828956088
aI11
aF0.8959999049929295
aI244
aI62
aF0.3062002039892562
aF0.5405930986801227
aI71
asbag1
(g10
g3
Ntp5444
Rp5445
(dp5446
g14
(lp5447
I32
aI8
aF0.5091536508339329
aI35
aF0.7908592612063241
aI447
aI43
aF0.04014687597682298
aF0.09581981832538966
aI220
asbag1
(g10
g3
Ntp5448
Rp5449
(dp5450
g14
(lp5451
I8
aI4
aF0.38085292897069545
aI43
aF0.8084866098900985
aI152
aI38
aF0.36777653056837567
aF0.8981062012926381
aI27
asbag1
(g10
g3
Ntp5452
Rp5453
(dp5454
g14
(lp5455
I4
aI4
aF0.819136830873349
aI18
aF0.69968500024276
aI224
aI71
aF0.030211160393938452
aF0.0846664073657496
aI463
asbag1
(g10
g3
Ntp5456
Rp5457
(dp5458
g14
(lp5459
I4
aI4
aF0.729205559863801
aI59
aF0.06963236564846376
aI266
aI68
aF0.2762446693591428
aF0.3650896133309305
aI238
asbag1
(g10
g3
Ntp5460
Rp5461
(dp5462
g14
(lp5463
I4
aI1
aF0.29977875087714867
aI30
aF0.13236270633420677
aI18
aI97
aF0.40517836583213973
aF0.5541597075562166
aI57
asbag1
(g10
g3
Ntp5464
Rp5465
(dp5466
g14
(lp5467
I1
aI1
aF0.8772285888559551
aI69
aF0.3073848460850922
aI382
aI20
aF0.7458006016905486
aF0.6319432131676148
aI33
asbasg20
I20
sbI-50
tp5468
a(g1
(g2
g3
Ntp5469
Rp5470
(dp5471
g7
I128
sg8
(lp5472
g1
(g10
g3
Ntp5473
Rp5474
(dp5475
g14
(lp5476
I128
aI64
aF0.9210010884173115
aI36
aF0.16849836944261654
aI490
aI150
aF0.5064847138867723
aF0.40353703768059246
aI164
asbag1
(g10
g3
Ntp5477
Rp5478
(dp5479
g14
(lp5480
I64
aI4
aF0.561900676357149
aI36
aF0.04007152137417713
aI483
aI43
aF0.9404242611188864
aF0.15754007692833594
aI133
asbag1
(g10
g3
Ntp5481
Rp5482
(dp5483
g14
(lp5484
I4
aI1
aF0.11547328055288109
aI15
aF0.578626577370475
aI237
aI97
aF0.7299456579416286
aF0.2624743201459462
aI194
asbag1
(g10
g3
Ntp5485
Rp5486
(dp5487
g14
(lp5488
I1
aI1
aF0.7475584544043699
aI24
aF0.1474811999523128
aI127
aI20
aF0.7640817990309604
aF0.6918628551800666
aI79
asbasg20
I20
sbI-50
tp5489
a(g1
(g2
g3
Ntp5490
Rp5491
(dp5492
g7
I128
sg8
(lp5493
g1
(g10
g3
Ntp5494
Rp5495
(dp5496
g14
(lp5497
I128
aI32
aF0.5030825036820937
aI44
aF0.4201274558437693
aI156
aI104
aF0.7671307327657488
aF0.684478318699843
aI351
asbag1
(g10
g3
Ntp5498
Rp5499
(dp5500
g14
(lp5501
I32
aI4
aF0.07801911053253119
aI15
aF0.9023212024991204
aI244
aI78
aF0.691898681143234
aF0.16334838793344153
aI292
asbag1
(g10
g3
Ntp5502
Rp5503
(dp5504
g14
(lp5505
I4
aI4
aF0.06236996908840242
aI26
aF0.7366940145503208
aI91
aI9
aF0.062038576226266295
aF0.7886445894012042
aI82
asbag1
(g10
g3
Ntp5506
Rp5507
(dp5508
g14
(lp5509
I4
aI1
aF0.5514496749215023
aI44
aF0.19603191964142685
aI154
aI82
aF0.2791425621768684
aF0.2718158723745726
aI474
asbag1
(g10
g3
Ntp5510
Rp5511
(dp5512
g14
(lp5513
I1
aI1
aF0.8861894976111648
aI58
aF0.014768628279561824
aI147
aI20
aF0.23732835296564547
aF0.3613746019613838
aI403
asbasg20
I20
sbI-50
tp5514
a(g1
(g2
g3
Ntp5515
Rp5516
(dp5517
g7
I128
sg8
(lp5518
g1
(g10
g3
Ntp5519
Rp5520
(dp5521
g14
(lp5522
I128
aI1
aF0.8922587980379698
aI66
aF0.3330763133175798
aI15
aI29
aF0.041512539580907726
aF0.4930932006869053
aI261
asbag1
(g10
g3
Ntp5523
Rp5524
(dp5525
g14
(lp5526
I1
aI1
aF0.5864419124369933
aI43
aF0.8884498667533307
aI166
aI20
aF0.41068963919715196
aF0.17521213298200367
aI324
asbasg20
I20
sbg21
(g25
S'\x10\x16\xd5\xe6\xe9{\xf2?'
p5527
tp5528
Rp5529
tp5530
a(g1
(g2
g3
Ntp5531
Rp5532
(dp5533
g7
I128
sg8
(lp5534
g1
(g10
g3
Ntp5535
Rp5536
(dp5537
g14
(lp5538
I128
aI2
aF0.20127197453511436
aI60
aF0.9942571848450387
aI108
aI96
aF0.8618386272381494
aF0.9735796642672978
aI156
asbag1
(g10
g3
Ntp5539
Rp5540
(dp5541
g14
(lp5542
I2
aI2
aF0.7781950728193924
aI81
aF0.3068305680568494
aI280
aI29
aF0.09864124123559603
aF0.33664771798241144
aI124
asbag1
(g10
g3
Ntp5543
Rp5544
(dp5545
g14
(lp5546
I2
aI1
aF0.06852242029543543
aI55
aF0.8762332106230496
aI385
aI48
aF0.28260946598466774
aF0.25160188091131963
aI474
asbag1
(g10
g3
Ntp5547
Rp5548
(dp5549
g14
(lp5550
I1
aI1
aF0.866834814372109
aI96
aF0.1238947955608003
aI72
aI20
aF0.790595731293516
aF0.8026137813904245
aI247
asbasg20
I20
sbg21
(g25
S'\xfc#\xc6\xe7p\xec\xee\xbf'
p5551
tp5552
Rp5553
tp5554
a(g1
(g2
g3
Ntp5555
Rp5556
(dp5557
g7
I128
sg8
(lp5558
g1
(g10
g3
Ntp5559
Rp5560
(dp5561
g14
(lp5562
I128
aI32
aF0.7232851881866312
aI91
aF0.5893807109843332
aI153
aI68
aF0.46301794861219225
aF0.8927627614739921
aI121
asbag1
(g10
g3
Ntp5563
Rp5564
(dp5565
g14
(lp5566
I32
aI2
aF0.21384765702753072
aI54
aF0.46587495618589625
aI322
aI51
aF0.6637205957113415
aF0.6372809271015234
aI318
asbag1
(g10
g3
Ntp5567
Rp5568
(dp5569
g14
(lp5570
I2
aI1
aF0.9578649676391768
aI80
aF0.2022981905575243
aI45
aI73
aF0.26957037990770893
aF0.32512140805897294
aI128
asbag1
(g10
g3
Ntp5571
Rp5572
(dp5573
g14
(lp5574
I1
aI1
aF0.5034691826557222
aI57
aF0.5867376747636377
aI115
aI20
aF0.7427267432476266
aF0.14035299318424865
aI164
asbasg20
I20
sbI-50
tp5575
a(g1
(g2
g3
Ntp5576
Rp5577
(dp5578
g7
I128
sg8
(lp5579
g1
(g10
g3
Ntp5580
Rp5581
(dp5582
g14
(lp5583
I128
aI16
aF0.8934391718505954
aI53
aF0.795573803481673
aI123
aI44
aF0.20807439721594312
aF0.2037987191355678
aI36
asbag1
(g10
g3
Ntp5584
Rp5585
(dp5586
g14
(lp5587
I16
aI1
aF0.1804640471863178
aI43
aF0.7167263718293791
aI224
aI56
aF0.38220945570642717
aF0.06072699855708741
aI431
asbag1
(g10
g3
Ntp5588
Rp5589
(dp5590
g14
(lp5591
I1
aI1
aF0.15895165617559337
aI89
aF0.6523645415207048
aI299
aI20
aF0.8204021209995561
aF0.9798755273583575
aI405
asbasg20
I20
sbg21
(g25
S'\xa7ON|Q\x13\xf5\xbf'
p5592
tp5593
Rp5594
tp5595
a(g1
(g2
g3
Ntp5596
Rp5597
(dp5598
g7
I128
sg8
(lp5599
g1
(g10
g3
Ntp5600
Rp5601
(dp5602
g14
(lp5603
I128
aI8
aF0.8579097093558757
aI17
aF0.48262881300199345
aI265
aI87
aF0.4957924185295647
aF0.6736712979484147
aI295
asbag1
(g10
g3
Ntp5604
Rp5605
(dp5606
g14
(lp5607
I8
aI4
aF0.21437551641456387
aI55
aF0.2888235726667633
aI102
aI26
aF0.8852511033673413
aF0.2295318024548395
aI407
asbag1
(g10
g3
Ntp5608
Rp5609
(dp5610
g14
(lp5611
I4
aI2
aF0.5839576118216631
aI18
aF0.7352813651141463
aI279
aI90
aF0.38630099309604315
aF0.9215430630458403
aI453
asbag1
(g10
g3
Ntp5612
Rp5613
(dp5614
g14
(lp5615
I2
aI1
aF0.37705856813989735
aI25
aF0.1816149380527281
aI360
aI52
aF0.38487912701203464
aF0.3036169466334011
aI223
asbag1
(g10
g3
Ntp5616
Rp5617
(dp5618
g14
(lp5619
I1
aI1
aF0.7687567992004919
aI40
aF0.5259045152495022
aI376
aI20
aF0.9494391966841552
aF0.47622137236375706
aI378
asbasg20
I20
sbg21
(g25
S'\xf0-X\xc4\x94\x06\xfa\xbf'
p5620
tp5621
Rp5622
tp5623
a(g1
(g2
g3
Ntp5624
Rp5625
(dp5626
g7
I128
sg8
(lp5627
g1
(g10
g3
Ntp5628
Rp5629
(dp5630
g14
(lp5631
I128
aI64
aF0.6533635760755491
aI61
aF0.48182795699686254
aI91
aI108
aF0.19441266696195592
aF0.08505056743950334
aI179
asbag1
(g10
g3
Ntp5632
Rp5633
(dp5634
g14
(lp5635
I64
aI8
aF0.3976479636081355
aI27
aF0.8142502134510492
aI370
aI98
aF0.9647464083335977
aF0.9919672715469465
aI452
asbag1
(g10
g3
Ntp5636
Rp5637
(dp5638
g14
(lp5639
I8
aI1
aF0.1979748051829101
aI50
aF0.26865237466623615
aI132
aI25
aF0.5505161773081678
aF0.18685443470739427
aI491
asbag1
(g10
g3
Ntp5640
Rp5641
(dp5642
g14
(lp5643
I1
aI1
aF0.6457779909436645
aI54
aF0.507905701371063
aI30
aI20
aF0.36159713816191474
aF0.049318239551215726
aI94
asbasg20
I20
sbI-50
tp5644
a(g1
(g2
g3
Ntp5645
Rp5646
(dp5647
g7
I128
sg8
(lp5648
g1
(g10
g3
Ntp5649
Rp5650
(dp5651
g14
(lp5652
I128
aI128
aF0.08818599480654277
aI80
aF0.07297605356759951
aI356
aI135
aF0.6705862082627105
aF0.22950651657344268
aI452
asbag1
(g10
g3
Ntp5653
Rp5654
(dp5655
g14
(lp5656
I128
aI128
aF0.4065437424417203
aI18
aF0.07141762708664334
aI396
aI153
aF0.5649482963075635
aF0.8289159454407966
aI292
asbag1
(g10
g3
Ntp5657
Rp5658
(dp5659
g14
(lp5660
I128
aI2
aF0.6868558497497931
aI25
aF0.94861659163769
aI192
aI3
aF0.11535876149588375
aF0.3759363276253953
aI304
asbag1
(g10
g3
Ntp5661
Rp5662
(dp5663
g14
(lp5664
I2
aI2
aF0.4890260094571569
aI81
aF0.9957619736107448
aI137
aI38
aF0.5138758621970356
aF0.42773969626362396
aI165
asbag1
(g10
g3
Ntp5665
Rp5666
(dp5667
g14
(lp5668
I2
aI1
aF0.441732393864406
aI60
aF0.42547667774157094
aI430
aI62
aF0.7297027158747454
aF0.5652641178387591
aI487
asbag1
(g10
g3
Ntp5669
Rp5670
(dp5671
g14
(lp5672
I1
aI1
aF0.09826929245697846
aI59
aF0.853520633452663
aI453
aI20
aF0.33477375365672024
aF0.15286308607334242
aI471
asbasg20
I20
sbI-50
tp5673
a(g1
(g2
g3
Ntp5674
Rp5675
(dp5676
g7
I128
sg8
(lp5677
g1
(g10
g3
Ntp5678
Rp5679
(dp5680
g14
(lp5681
I128
aI2
aF0.0071840143232245746
aI71
aF0.9819557029432093
aI188
aI89
aF0.443681696216785
aF0.7920234883428243
aI347
asbag1
(g10
g3
Ntp5682
Rp5683
(dp5684
g14
(lp5685
I2
aI1
aF0.7771183909794883
aI85
aF0.8985272149183265
aI280
aI42
aF0.18167379321408572
aF0.8469388480780795
aI333
asbag1
(g10
g3
Ntp5686
Rp5687
(dp5688
g14
(lp5689
I1
aI1
aF0.2856640306996827
aI30
aF0.9125786517454926
aI323
aI20
aF0.7019163593325035
aF0.7439231188330352
aI316
asbasg20
I20
sbg21
(g25
S'\x86\xf5N\x80\xd0\x92\xf4\xbf'
p5690
tp5691
Rp5692
tp5693
a(g1
(g2
g3
Ntp5694
Rp5695
(dp5696
g7
I128
sg8
(lp5697
g1
(g10
g3
Ntp5698
Rp5699
(dp5700
g14
(lp5701
I128
aI32
aF0.7254006903009362
aI83
aF0.9016154315750257
aI477
aI127
aF0.1363259142049651
aF0.03527935007428851
aI3
asbag1
(g10
g3
Ntp5702
Rp5703
(dp5704
g14
(lp5705
I32
aI16
aF0.10648490499321295
aI97
aF0.38096728567321947
aI452
aI33
aF0.2107657434350233
aF0.027479170634363004
aI426
asbag1
(g10
g3
Ntp5706
Rp5707
(dp5708
g14
(lp5709
I16
aI4
aF0.7430465737083279
aI47
aF0.477027689468395
aI92
aI15
aF0.6956711927408141
aF0.7865943261952779
aI348
asbag1
(g10
g3
Ntp5710
Rp5711
(dp5712
g14
(lp5713
I4
aI4
aF0.1904028280459683
aI35
aF0.9603469274777814
aI105
aI26
aF0.4916499154847689
aF0.8081192741017537
aI29
asbag1
(g10
g3
Ntp5714
Rp5715
(dp5716
g14
(lp5717
I4
aI4
aF0.007749965754310972
aI19
aF0.9181281551001185
aI150
aI61
aF0.5986412217357562
aF0.06268891957200262
aI167
asbag1
(g10
g3
Ntp5718
Rp5719
(dp5720
g14
(lp5721
I4
aI2
aF0.8805493327397215
aI30
aF0.3294662591456834
aI208
aI87
aF0.4205540209507306
aF0.8819866528891731
aI15
asbag1
(g10
g3
Ntp5722
Rp5723
(dp5724
g14
(lp5725
I2
aI1
aF0.8929163420815621
aI81
aF0.13218845039590488
aI415
aI81
aF0.6900920267004069
aF0.6860842810045638
aI309
asbag1
(g10
g3
Ntp5726
Rp5727
(dp5728
g14
(lp5729
I1
aI1
aF0.788410232000909
aI50
aF0.38113325445468504
aI81
aI20
aF0.09425386969038119
aF0.24205064383155295
aI242
asbasg20
I20
sbI-50
tp5730
a(g1
(g2
g3
Ntp5731
Rp5732
(dp5733
g7
I128
sg8
(lp5734
g1
(g10
g3
Ntp5735
Rp5736
(dp5737
g14
(lp5738
I128
aI4
aF0.8684838789715381
aI77
aF0.5474553985232467
aI20
aI11
aF0.8900705283207614
aF0.4694556884984048
aI92
asbag1
(g10
g3
Ntp5739
Rp5740
(dp5741
g14
(lp5742
I4
aI2
aF0.6644082575015441
aI76
aF0.9329673459030252
aI498
aI56
aF0.6423930269249584
aF0.02827379046127587
aI276
asbag1
(g10
g3
Ntp5743
Rp5744
(dp5745
g14
(lp5746
I2
aI2
aF0.024146089528208625
aI49
aF0.47842089153054623
aI291
aI47
aF0.11059162195030714
aF0.17284934176929723
aI448
asbag1
(g10
g3
Ntp5747
Rp5748
(dp5749
g14
(lp5750
I2
aI2
aF0.1932715369150645
aI64
aF0.046947564961496324
aI346
aI47
aF0.8825755776720673
aF0.40101876994010965
aI392
asbag1
(g10
g3
Ntp5751
Rp5752
(dp5753
g14
(lp5754
I2
aI1
aF0.6411463803074292
aI40
aF0.27466460092985445
aI352
aI38
aF0.7391622332572388
aF0.47662305191834986
aI103
asbag1
(g10
g3
Ntp5755
Rp5756
(dp5757
g14
(lp5758
I1
aI1
aF0.3976412668806295
aI17
aF0.6588417197883153
aI168
aI20
aF0.46136902159827275
aF0.331804561666994
aI433
asbasg20
I20
sbg21
(g25
S'\xdd\xe6v:\xb6l\xdb\xbf'
p5759
tp5760
Rp5761
tp5762
a(g1
(g2
g3
Ntp5763
Rp5764
(dp5765
g7
I128
sg8
(lp5766
g1
(g10
g3
Ntp5767
Rp5768
(dp5769
g14
(lp5770
I128
aI8
aF0.45479591193797886
aI69
aF0.2892346272171781
aI224
aI93
aF0.5477784477896446
aF0.4239115473472056
aI453
asbag1
(g10
g3
Ntp5771
Rp5772
(dp5773
g14
(lp5774
I8
aI2
aF0.9438317019247363
aI59
aF0.969850718225319
aI405
aI81
aF0.3766451662663701
aF0.5556920939560499
aI158
asbag1
(g10
g3
Ntp5775
Rp5776
(dp5777
g14
(lp5778
I2
aI1
aF0.8385473094582329
aI72
aF0.9374212895233256
aI36
aI54
aF0.29292080412788024
aF0.1040155454935231
aI125
asbag1
(g10
g3
Ntp5779
Rp5780
(dp5781
g14
(lp5782
I1
aI1
aF0.36371306672722625
aI62
aF0.07541397064652355
aI264
aI20
aF0.0416061086590912
aF0.14175290554399123
aI267
asbasg20
I20
sbg21
(g25
S'\x00\xc0\xd2r\x9f|\xfe\xbf'
p5783
tp5784
Rp5785
tp5786
a(g1
(g2
g3
Ntp5787
Rp5788
(dp5789
g7
I128
sg8
(lp5790
g1
(g10
g3
Ntp5791
Rp5792
(dp5793
g14
(lp5794
I128
aI32
aF0.7242465512796695
aI16
aF0.2383985675858339
aI315
aI83
aF0.21354181727475852
aF0.9243217195612007
aI64
asbag1
(g10
g3
Ntp5795
Rp5796
(dp5797
g14
(lp5798
I32
aI2
aF0.2963154867697335
aI79
aF0.4416527494958986
aI391
aI68
aF0.3002816234889153
aF0.4848435520991584
aI331
asbag1
(g10
g3
Ntp5799
Rp5800
(dp5801
g14
(lp5802
I2
aI2
aF0.01645826353984725
aI58
aF0.5141488689206928
aI494
aI98
aF0.9527546900397271
aF0.23538530631044374
aI410
asbag1
(g10
g3
Ntp5803
Rp5804
(dp5805
g14
(lp5806
I2
aI1
aF0.541184671054893
aI12
aF0.8726400915289223
aI468
aI5
aF0.8076111377128847
aF0.8823285225155022
aI247
asbag1
(g10
g3
Ntp5807
Rp5808
(dp5809
g14
(lp5810
I1
aI1
aF0.13102058664743477
aI39
aF0.8288852784152895
aI283
aI20
aF0.6615904973419885
aF0.8904655223023371
aI350
asbasg20
I20
sbI-50
tp5811
a(g1
(g2
g3
Ntp5812
Rp5813
(dp5814
g7
I128
sg8
(lp5815
g1
(g10
g3
Ntp5816
Rp5817
(dp5818
g14
(lp5819
I128
aI32
aF0.3553735804412904
aI80
aF0.47341066233383733
aI29
aI81
aF0.26593762319895875
aF0.09019660169240717
aI225
asbag1
(g10
g3
Ntp5820
Rp5821
(dp5822
g14
(lp5823
I32
aI1
aF0.5730014228722196
aI90
aF0.6892768260673309
aI478
aI24
aF0.3903538115947657
aF0.09789731409931368
aI25
asbag1
(g10
g3
Ntp5824
Rp5825
(dp5826
g14
(lp5827
I1
aI1
aF0.5202543613408914
aI44
aF0.5124205776776124
aI454
aI20
aF0.8457696299536193
aF0.4951863997459829
aI444
asbasg20
I20
sbI-50
tp5828
a(g1
(g2
g3
Ntp5829
Rp5830
(dp5831
g7
I128
sg8
(lp5832
g1
(g10
g3
Ntp5833
Rp5834
(dp5835
g14
(lp5836
I128
aI64
aF0.8406523888466569
aI36
aF0.10912090590187551
aI218
aI98
aF0.44257604608967793
aF0.5654623919137536
aI39
asbag1
(g10
g3
Ntp5837
Rp5838
(dp5839
g14
(lp5840
I64
aI64
aF0.6608896461712479
aI26
aF0.7117342145973385
aI492
aI106
aF0.41650176429830976
aF0.7000311164376933
aI245
asbag1
(g10
g3
Ntp5841
Rp5842
(dp5843
g14
(lp5844
I64
aI8
aF0.7467846691728147
aI19
aF0.08431716755627783
aI471
aI41
aF0.576804829431624
aF0.7551546500812869
aI471
asbag1
(g10
g3
Ntp5845
Rp5846
(dp5847
g14
(lp5848
I8
aI8
aF0.2575232722142655
aI92
aF0.04675844331172674
aI134
aI50
aF0.2008990680850603
aF0.7687291203697648
aI170
asbag1
(g10
g3
Ntp5849
Rp5850
(dp5851
g14
(lp5852
I8
aI4
aF0.006701412253585337
aI29
aF0.23303700459908394
aI331
aI48
aF0.4507818302049592
aF0.8056126950748044
aI274
asbag1
(g10
g3
Ntp5853
Rp5854
(dp5855
g14
(lp5856
I4
aI4
aF0.08901739189429558
aI79
aF0.14989533149341505
aI159
aI85
aF0.08004495693882296
aF0.9086228892322594
aI268
asbag1
(g10
g3
Ntp5857
Rp5858
(dp5859
g14
(lp5860
I4
aI2
aF0.4877872733964925
aI56
aF0.9982575713205163
aI220
aI77
aF0.9936004584793994
aF0.43201244989064
aI21
asbag1
(g10
g3
Ntp5861
Rp5862
(dp5863
g14
(lp5864
I2
aI1
aF0.3089113981305147
aI67
aF0.10500291233505754
aI134
aI24
aF0.4626406413929217
aF0.06978076796021138
aI394
asbag1
(g10
g3
Ntp5865
Rp5866
(dp5867
g14
(lp5868
I1
aI1
aF0.20982416665454684
aI38
aF0.5611795814011435
aI82
aI20
aF0.7345016709206813
aF0.6794142737292508
aI156
asbasg20
I20
sbI-50
tp5869
a(g1
(g2
g3
Ntp5870
Rp5871
(dp5872
g7
I128
sg8
(lp5873
g1
(g10
g3
Ntp5874
Rp5875
(dp5876
g14
(lp5877
I128
aI128
aF0.24314955755515255
aI74
aF0.6535834938410879
aI160
aI159
aF0.6373296552362494
aF0.792580697545924
aI370
asbag1
(g10
g3
Ntp5878
Rp5879
(dp5880
g14
(lp5881
I128
aI8
aF0.8512532237095893
aI17
aF0.08442763299322387
aI25
aI66
aF0.11003175331275361
aF0.19758287855453582
aI405
asbag1
(g10
g3
Ntp5882
Rp5883
(dp5884
g14
(lp5885
I8
aI2
aF0.7962640210164929
aI74
aF0.8775215211402981
aI404
aI47
aF0.20051754352589535
aF0.9168656341398915
aI418
asbag1
(g10
g3
Ntp5886
Rp5887
(dp5888
g14
(lp5889
I2
aI1
aF0.8143085207327659
aI90
aF0.6829013475690261
aI308
aI101
aF0.08360482629219423
aF0.19615288201631031
aI115
asbag1
(g10
g3
Ntp5890
Rp5891
(dp5892
g14
(lp5893
I1
aI1
aF0.30749406535649293
aI94
aF0.8343475135813679
aI286
aI20
aF0.1707951221600491
aF0.47259397042969364
aI454
asbasg20
I20
sbI-50
tp5894
a(g1
(g2
g3
Ntp5895
Rp5896
(dp5897
g7
I128
sg8
(lp5898
g1
(g10
g3
Ntp5899
Rp5900
(dp5901
g14
(lp5902
I128
aI2
aF0.9039492550080754
aI48
aF0.9197088835188658
aI133
aI9
aF0.5894764322095956
aF0.8612053571961786
aI164
asbag1
(g10
g3
Ntp5903
Rp5904
(dp5905
g14
(lp5906
I2
aI1
aF0.827707620209167
aI79
aF0.3016752299002057
aI321
aI12
aF0.020270087324330666
aF0.8761369504284309
aI186
asbag1
(g10
g3
Ntp5907
Rp5908
(dp5909
g14
(lp5910
I1
aI1
aF0.8276469650431398
aI74
aF0.42394593273798886
aI242
aI20
aF0.562973684703045
aF0.9863817721361413
aI283
asbasg20
I20
sbg21
(g25
S'4o\xc9\xb2\x0f/\xec\xbf'
p5911
tp5912
Rp5913
tp5914
a(g1
(g2
g3
Ntp5915
Rp5916
(dp5917
g7
I128
sg8
(lp5918
g1
(g10
g3
Ntp5919
Rp5920
(dp5921
g14
(lp5922
I128
aI32
aF0.21440438252422056
aI25
aF0.9721923247453025
aI400
aI91
aF0.6118304970035305
aF0.9737257385203438
aI206
asbag1
(g10
g3
Ntp5923
Rp5924
(dp5925
g14
(lp5926
I32
aI2
aF0.29230899396469556
aI96
aF0.6636964065872931
aI222
aI3
aF0.15829117443072815
aF0.1924474613733157
aI10
asbag1
(g10
g3
Ntp5927
Rp5928
(dp5929
g14
(lp5930
I2
aI1
aF0.682668070727345
aI28
aF0.7404956025213799
aI174
aI54
aF0.934903894625801
aF0.9692918733614398
aI166
asbag1
(g10
g3
Ntp5931
Rp5932
(dp5933
g14
(lp5934
I1
aI1
aF0.21386203894038291
aI72
aF0.7123497009175045
aI176
aI20
aF0.18009458045171123
aF0.8518095428560852
aI22
asbasg20
I20
sbI-50
tp5935
a(g1
(g2
g3
Ntp5936
Rp5937
(dp5938
g7
I128
sg8
(lp5939
g1
(g10
g3
Ntp5940
Rp5941
(dp5942
g14
(lp5943
I128
aI64
aF0.18074450157070432
aI16
aF0.7195031582288023
aI185
aI143
aF0.36727639494833264
aF0.9772078572165955
aI418
asbag1
(g10
g3
Ntp5944
Rp5945
(dp5946
g14
(lp5947
I64
aI2
aF0.28721106511392436
aI58
aF0.7923182938932953
aI84
aI32
aF0.7614270458752731
aF0.8054723478112708
aI67
asbag1
(g10
g3
Ntp5948
Rp5949
(dp5950
g14
(lp5951
I2
aI2
aF0.2466988488014148
aI33
aF0.9610098858431979
aI449
aI28
aF0.6711710264452992
aF0.6066396654981582
aI41
asbag1
(g10
g3
Ntp5952
Rp5953
(dp5954
g14
(lp5955
I2
aI1
aF0.3602509795418697
aI22
aF0.62080567078249
aI449
aI58
aF0.024753377830827983
aF0.30149945856007154
aI129
asbag1
(g10
g3
Ntp5956
Rp5957
(dp5958
g14
(lp5959
I1
aI1
aF0.5983389381698787
aI89
aF0.1705718016539346
aI395
aI20
aF0.1434770128274344
aF0.8224102604628307
aI435
asbasg20
I20
sbI-50
tp5960
a(g1
(g2
g3
Ntp5961
Rp5962
(dp5963
g7
I128
sg8
(lp5964
g1
(g10
g3
Ntp5965
Rp5966
(dp5967
g14
(lp5968
I128
aI16
aF0.8122531248969628
aI69
aF0.5243358033266476
aI213
aI75
aF0.8544075289631345
aF0.7013149285215359
aI134
asbag1
(g10
g3
Ntp5969
Rp5970
(dp5971
g14
(lp5972
I16
aI2
aF0.8980225465036233
aI71
aF0.5740148041885209
aI479
aI12
aF0.9984848699751756
aF0.6920575309892693
aI115
asbag1
(g10
g3
Ntp5973
Rp5974
(dp5975
g14
(lp5976
I2
aI1
aF0.944562865665007
aI39
aF0.4038010513832535
aI376
aI92
aF0.14456829352504197
aF0.5684272148421403
aI265
asbag1
(g10
g3
Ntp5977
Rp5978
(dp5979
g14
(lp5980
I1
aI1
aF0.532565769825737
aI15
aF0.8570856621914115
aI229
aI20
aF0.404151529870318
aF0.004968181732899812
aI208
asbasg20
I20
sbI-50
tp5981
a(g1
(g2
g3
Ntp5982
Rp5983
(dp5984
g7
I128
sg8
(lp5985
g1
(g10
g3
Ntp5986
Rp5987
(dp5988
g14
(lp5989
I128
aI64
aF0.9126401434806497
aI34
aF0.5439631788968652
aI77
aI95
aF0.36432847194421925
aF0.9645832374547889
aI353
asbag1
(g10
g3
Ntp5990
Rp5991
(dp5992
g14
(lp5993
I64
aI1
aF0.4603173271537785
aI71
aF0.2760312167017157
aI249
aI85
aF0.875246953491049
aF0.41971056065678536
aI97
asbag1
(g10
g3
Ntp5994
Rp5995
(dp5996
g14
(lp5997
I1
aI1
aF0.41559553669728266
aI21
aF0.6323111425509225
aI183
aI20
aF0.8821650028811951
aF0.14133252723811907
aI169
asbasg20
I20
sbI-50
tp5998
a(g1
(g2
g3
Ntp5999
Rp6000
(dp6001
g7
I128
sg8
(lp6002
g1
(g10
g3
Ntp6003
Rp6004
(dp6005
g14
(lp6006
I128
aI128
aF0.722123478237783
aI32
aF0.4305751425171026
aI15
aI147
aF0.02658423481007921
aF0.28663587605506136
aI23
asbag1
(g10
g3
Ntp6007
Rp6008
(dp6009
g14
(lp6010
I128
aI128
aF0.9280376330780468
aI58
aF0.10995320851069135
aI295
aI191
aF0.2941093830222784
aF0.13566172291485923
aI232
asbag1
(g10
g3
Ntp6011
Rp6012
(dp6013
g14
(lp6014
I128
aI32
aF0.12633694418780606
aI66
aF0.027707743574031607
aI16
aI86
aF0.4751988932214175
aF0.24864286823507642
aI185
asbag1
(g10
g3
Ntp6015
Rp6016
(dp6017
g14
(lp6018
I32
aI4
aF0.411632091124271
aI93
aF0.4644249364666969
aI55
aI58
aF0.8056389944254895
aF0.26752312543045265
aI323
asbag1
(g10
g3
Ntp6019
Rp6020
(dp6021
g14
(lp6022
I4
aI2
aF0.5786138304039226
aI61
aF0.8898058003961566
aI165
aI53
aF0.8072888469786805
aF0.13180081715472836
aI104
asbag1
(g10
g3
Ntp6023
Rp6024
(dp6025
g14
(lp6026
I2
aI1
aF0.47273662277871853
aI98
aF0.5093305720045654
aI70
aI15
aF0.6126115868729909
aF0.7464122979081522
aI366
asbag1
(g10
g3
Ntp6027
Rp6028
(dp6029
g14
(lp6030
I1
aI1
aF0.44011869131586434
aI94
aF0.5934949658692471
aI154
aI20
aF0.1657998186114399
aF0.8788576761464796
aI323
asbasg20
I20
sbI-50
tp6031
a.