(lp0
(ccopy_reg
_reconstructor
p1
(cgenetic_algo
Genome
p2
c__builtin__
object
p3
Ntp4
Rp5
(dp6
S'input_size'
p7
I128
sS'genes'
p8
(lp9
g1
(cgenetic_algo
Gene
p10
g3
Ntp11
Rp12
(dp13
S'data'
p14
(lp15
I128
aI1
aF0.5377307471478266
aI71
aF0.05620583530436212
aI251
aI4
aF0.5653398045566319
aF0.7601623425488704
aI330
asbasS'output_size'
p16
I4
sbcnumpy.core.multiarray
scalar
p17
(cnumpy
dtype
p18
(S'f8'
p19
I0
I1
tp20
Rp21
(I3
S'<'
p22
NNNI-1
I-1
I0
tp23
bS'\xc1\xe9m\xb30\xc1\xfc?'
p24
tp25
Rp26
tp27
a(g1
(g2
g3
Ntp28
Rp29
(dp30
g7
I128
sg8
(lp31
g1
(g10
g3
Ntp32
Rp33
(dp34
g14
(lp35
I128
aI1
aF0.8172408471729785
aI30
aF0.05590057256254334
aI390
aI4
aF0.5641001555472595
aF0.8259618317745046
aI244
asbasg16
I4
sbg17
(g21
S'|\xbfo\x9f\xa0\xfd\xf5?'
p36
tp37
Rp38
tp39
a(g1
(g2
g3
Ntp40
Rp41
(dp42
g7
I128
sg8
(lp43
g1
(g10
g3
Ntp44
Rp45
(dp46
g14
(lp47
I128
aI1
aF0.45652747891049195
aI70
aF0.056358466675271515
aI293
aI4
aF0.4075826601017774
aF0.7272625979360532
aI344
asbasg16
I4
sbg17
(g21
S'\x1d\xa48\x1b\x7f|\xe9?'
p48
tp49
Rp50
tp51
a(g1
(g2
g3
Ntp52
Rp53
(dp54
g7
I128
sg8
(lp55
g1
(g10
g3
Ntp56
Rp57
(dp58
g14
(lp59
I128
aI1
aF0.45652747891049195
aI70
aF0.056358466675271515
aI293
aI4
aF0.4075826601017774
aF0.7272625979360532
aI344
asbasg16
I4
sbg17
(g21
S'\xc8\xbd\xff\xd3 C\x05@'
p60
tp61
Rp62
tp63
a(g1
(g2
g3
Ntp64
Rp65
(dp66
g7
I128
sg8
(lp67
g1
(g10
g3
Ntp68
Rp69
(dp70
g14
(lp71
I128
aI1
aF0.6607624787401434
aI57
aF0.05718712104350166
aI338
aI4
aF0.5635566188988497
aF0.8391563305536214
aI278
asbasg16
I4
sbg17
(g21
S'\xff\\\xeb_vY\x02@'
p72
tp73
Rp74
tp75
a(g1
(g2
g3
Ntp76
Rp77
(dp78
g7
I128
sg8
(lp79
g1
(g10
g3
Ntp80
Rp81
(dp82
g14
(lp83
I128
aI1
aF0.6607624787401434
aI57
aF0.05718712104350166
aI338
aI4
aF0.5635566188988497
aF0.8391563305536214
aI278
asbasg16
I4
sbg17
(g21
S'1\x80\xe5&\xe0\x03\x03@'
p84
tp85
Rp86
tp87
a(g1
(g2
g3
Ntp88
Rp89
(dp90
g7
I128
sg8
(lp91
g1
(g10
g3
Ntp92
Rp93
(dp94
g14
(lp95
I128
aI1
aF0.475183199101933
aI69
aF0.05671661134886764
aI264
aI4
aF0.6980858818968357
aF0.7227302803291965
aI305
asbasg16
I4
sbg17
(g21
S'[\xaa^\x97\x8e\x11\xf2?'
p96
tp97
Rp98
tp99
a(g1
(g2
g3
Ntp100
Rp101
(dp102
g7
I128
sg8
(lp103
g1
(g10
g3
Ntp104
Rp105
(dp106
g14
(lp107
I128
aI1
aF0.475183199101933
aI69
aF0.05671661134886764
aI264
aI4
aF0.6980858818968357
aF0.7227302803291965
aI305
asbasg16
I4
sbg17
(g21
S'\x96\xc0\xf0\xe3]P\x03@'
p108
tp109
Rp110
tp111
a(g1
(g2
g3
Ntp112
Rp113
(dp114
g7
I128
sg8
(lp115
g1
(g10
g3
Ntp116
Rp117
(dp118
g14
(lp119
I128
aI1
aF0.4157268113510926
aI67
aF0.05801688302513429
aI252
aI4
aF0.6665941249797572
aF0.668509534012079
aI389
asbasg16
I4
sbg17
(g21
S'b\x1ew=b\xa5\xfe?'
p120
tp121
Rp122
tp123
a(g1
(g2
g3
Ntp124
Rp125
(dp126
g7
I128
sg8
(lp127
g1
(g10
g3
Ntp128
Rp129
(dp130
g14
(lp131
I128
aI1
aF0.4157268113510926
aI67
aF0.05801688302513429
aI252
aI4
aF0.6665941249797572
aF0.668509534012079
aI389
asbasg16
I4
sbg17
(g21
S'$\x0b4`p\xdf\xfe?'
p132
tp133
Rp134
tp135
a(g1
(g2
g3
Ntp136
Rp137
(dp138
g7
I128
sg8
(lp139
g1
(g10
g3
Ntp140
Rp141
(dp142
g14
(lp143
I128
aI1
aF0.39293446278655764
aI67
aF0.05801688302513429
aI306
aI4
aF0.6954871952525142
aF0.668509534012079
aI312
asbasg16
I4
sbg17
(g21
S'q\xef\x0b|\x9a\x8b\x01@'
p144
tp145
Rp146
tp147
a(g1
(g2
g3
Ntp148
Rp149
(dp150
g7
I128
sg8
(lp151
g1
(g10
g3
Ntp152
Rp153
(dp154
g14
(lp155
I128
aI1
aF0.39293446278655764
aI67
aF0.05801688302513429
aI306
aI4
aF0.6954871952525142
aF0.668509534012079
aI312
asbasg16
I4
sbg17
(g21
S'\x8aq\xba!S\x81\xfa?'
p156
tp157
Rp158
tp159
a(g1
(g2
g3
Ntp160
Rp161
(dp162
g7
I128
sg8
(lp163
g1
(g10
g3
Ntp164
Rp165
(dp166
g14
(lp167
I128
aI1
aF0.19433250649745654
aI75
aF0.05724120267128727
aI441
aI4
aF0.45875791406231
aF0.632338362881073
aI315
asbasg16
I4
sbg17
(g21
S'\x80&b\xe5l\x9b\xf2?'
p168
tp169
Rp170
tp171
a(g1
(g2
g3
Ntp172
Rp173
(dp174
g7
I128
sg8
(lp175
g1
(g10
g3
Ntp176
Rp177
(dp178
g14
(lp179
I128
aI1
aF0.19433250649745654
aI75
aF0.05724120267128727
aI441
aI4
aF0.45875791406231
aF0.632338362881073
aI315
asbasg16
I4
sbg17
(g21
S'\x90\x81\xd6zM\x04\x00@'
p180
tp181
Rp182
tp183
a(g1
(g2
g3
Ntp184
Rp185
(dp186
g7
I128
sg8
(lp187
g1
(g10
g3
Ntp188
Rp189
(dp190
g14
(lp191
I128
aI1
aF0.5909711838989156
aI44
aF0.06017456722531182
aI356
aI4
aF0.424620632073898
aF0.5665653183074213
aI381
asbasg16
I4
sbg17
(g21
S'\xb7Za\x9d2\x80\xf3?'
p192
tp193
Rp194
tp195
a(g1
(g2
g3
Ntp196
Rp197
(dp198
g7
I128
sg8
(lp199
g1
(g10
g3
Ntp200
Rp201
(dp202
g14
(lp203
I128
aI1
aF0.5909711838989156
aI44
aF0.06017456722531182
aI356
aI4
aF0.424620632073898
aF0.5665653183074213
aI381
asbasg16
I4
sbg17
(g21
S'\x8f\x8e\xd08\x06\xc4\x00@'
p204
tp205
Rp206
tp207
a(g1
(g2
g3
Ntp208
Rp209
(dp210
g7
I128
sg8
(lp211
g1
(g10
g3
Ntp212
Rp213
(dp214
g14
(lp215
I128
aI1
aF0.4798067058069156
aI69
aF0.07970699994272912
aI313
aI4
aF0.49872874781399523
aF0.6637761182127189
aI307
asbasg16
I4
sbg17
(g21
S'8E\xf5\x19\xa2\xee\x00@'
p216
tp217
Rp218
tp219
a(g1
(g2
g3
Ntp220
Rp221
(dp222
g7
I128
sg8
(lp223
g1
(g10
g3
Ntp224
Rp225
(dp226
g14
(lp227
I128
aI1
aF0.4798067058069156
aI69
aF0.07970699994272912
aI313
aI4
aF0.49872874781399523
aF0.6637761182127189
aI307
asbasg16
I4
sbg17
(g21
S'\xfe\xeb\xd2\xbc\xear\xfb?'
p228
tp229
Rp230
tp231
a(g1
(g2
g3
Ntp232
Rp233
(dp234
g7
I128
sg8
(lp235
g1
(g10
g3
Ntp236
Rp237
(dp238
g14
(lp239
I128
aI1
aF0.7985537618646233
aI64
aF0.05141923546030839
aI211
aI4
aF0.5043844959536715
aF0.655106375974081
aI337
asbasg16
I4
sbg17
(g21
S'Z\xfa\x8c\xa7\x97\xec\x02@'
p240
tp241
Rp242
tp243
a(g1
(g2
g3
Ntp244
Rp245
(dp246
g7
I128
sg8
(lp247
g1
(g10
g3
Ntp248
Rp249
(dp250
g14
(lp251
I128
aI1
aF0.7985537618646233
aI64
aF0.05141923546030839
aI211
aI4
aF0.5043844959536715
aF0.655106375974081
aI337
asbasg16
I4
sbg17
(g21
S'\x82\x97=\x1a\xad@\x02@'
p252
tp253
Rp254
tp255
a(g1
(g2
g3
Ntp256
Rp257
(dp258
g7
I128
sg8
(lp259
g1
(g10
g3
Ntp260
Rp261
(dp262
g14
(lp263
I128
aI1
aF0.5377307471478266
aI71
aF0.05620583530436212
aI251
aI4
aF0.5653398045566319
aF0.7601623425488704
aI330
asbasg16
I4
sbg17
(g21
S'\xd4E\xa9Hy\xcb\x03@'
p264
tp265
Rp266
tp267
a(g1
(g2
g3
Ntp268
Rp269
(dp270
g7
I128
sg8
(lp271
g1
(g10
g3
Ntp272
Rp273
(dp274
g14
(lp275
I128
aI8
aF0.8172408471729785
aI25
aF0.05590057256254334
aI390
aI4
aF0.5641001555472595
aF0.5519348755780713
aI244
asbag1
(g10
g3
Ntp276
Rp277
(dp278
g14
(lp279
I8
aI1
aF0.8970937957517925
aI50
aF0.4632451529432017
aI391
aI4
aF0.2040124139313736
aF0.18427192531446612
aI455
asbasg16
I4
sbI-50
tp280
a(g1
(g2
g3
Ntp281
Rp282
(dp283
g7
I128
sg8
(lp284
g1
(g10
g3
Ntp285
Rp286
(dp287
g14
(lp288
I128
aI1
aF0.37532421067315724
aI69
aF0.0565110980461809
aI336
aI4
aF0.2498255156469229
aF0.6943628533232361
aI359
asbasg16
I4
sbg17
(g21
S'\xf0\x1c\xbd\xee\x02\x9f\x01@'
p289
tp290
Rp291
tp292
a(g1
(g2
g3
Ntp293
Rp294
(dp295
g7
I128
sg8
(lp296
g1
(g10
g3
Ntp297
Rp298
(dp299
g14
(lp300
I128
aI1
aF0.6613904819008184
aI74
aF0.42936946139458587
aI308
aI4
aF0.5641001555472595
aF0.8259618317745046
aI302
asbasg16
I4
sbg17
(g21
S'\x96~"u\xd0\xc8\xd1?'
p301
tp302
Rp303
tp304
a(g1
(g2
g3
Ntp305
Rp306
(dp307
g7
I128
sg8
(lp308
g1
(g10
g3
Ntp309
Rp310
(dp311
g14
(lp312
I128
aI2
aF0.5042841103073082
aI84
aF0.05847366952445998
aI286
aI4
aF0.5630130822504399
aF0.8523508293327382
aI312
asbag1
(g10
g3
Ntp313
Rp314
(dp315
g14
(lp316
I2
aI1
aF0.7881365091689274
aI24
aF0.46028635893988745
aI175
aI4
aF0.8608651644756785
aF0.9410413862779039
aI337
asbasg16
I4
sbI-50
tp317
a(g1
(g2
g3
Ntp318
Rp319
(dp320
g7
I128
sg8
(lp321
g1
(g10
g3
Ntp322
Rp323
(dp324
g14
(lp325
I128
aI1
aF0.28897591630304764
aI29
aF0.05753265013519195
aI220
aI4
aF0.832071608246412
aF0.6194987288838885
aI308
asbasg16
I4
sbg17
(g21
S'\xc6\x8c\x1c\x8b\xcd%\xfe?'
p326
tp327
Rp328
tp329
a(g1
(g2
g3
Ntp330
Rp331
(dp332
g7
I128
sg8
(lp333
g1
(g10
g3
Ntp334
Rp335
(dp336
g14
(lp337
I128
aI1
aF0.4548219690486208
aI61
aF0.43777149395308257
aI355
aI4
aF0.4404353974412353
aF0.688409446894885
aI203
asbasg16
I4
sbg17
(g21
S'\x1ekykfQ\xd0\xbf'
p338
tp339
Rp340
tp341
a(g1
(g2
g3
Ntp342
Rp343
(dp344
g7
I128
sg8
(lp345
g1
(g10
g3
Ntp346
Rp347
(dp348
g14
(lp349
I128
aI1
aF0.3601241593826996
aI66
aF0.05879256337898131
aI225
aI4
aF0.8744303358972044
aF0.704680705143085
aI414
asbasg16
I4
sbg17
(g21
S'm\xa2\xfb\xb3\xf5\xe2\xfd?'
p350
tp351
Rp352
tp353
a(g1
(g2
g3
Ntp354
Rp355
(dp356
g7
I128
sg8
(lp357
g1
(g10
g3
Ntp358
Rp359
(dp360
g14
(lp361
I128
aI1
aF0.4992041001349824
aI66
aF0.05879256337898131
aI225
aI4
aF0.9322164764427185
aF0.704680705143085
aI293
asbasg16
I4
sbg17
(g21
S'Io\x1ea\xc5\x1d\xfc?'
p362
tp363
Rp364
tp365
a(g1
(g2
g3
Ntp366
Rp367
(dp368
g7
I128
sg8
(lp369
g1
(g10
g3
Ntp370
Rp371
(dp372
g14
(lp373
I128
aI1
aF0.6671125476809052
aI54
aF0.30717065134560795
aI307
aI4
aF0.5189474838390508
aF0.8124884295595152
aI199
asbasg16
I4
sbg17
(g21
S'l\xf7\xb0+\x8c\xe7\xdd?'
p374
tp375
Rp376
tp377
a(g1
(g2
g3
Ntp378
Rp379
(dp380
g7
I128
sg8
(lp381
g1
(g10
g3
Ntp382
Rp383
(dp384
g14
(lp385
I128
aI1
aF0.1020001875567802
aI81
aF0.05724120267128727
aI495
aI4
aF0.45875791406231
aF0.632338362881073
aI299
asbasg16
I4
sbg17
(g21
S'LHM:j\xe4\x01@'
p386
tp387
Rp388
tp389
a(g1
(g2
g3
Ntp390
Rp391
(dp392
g7
I128
sg8
(lp393
g1
(g10
g3
Ntp394
Rp395
(dp396
g14
(lp397
I128
aI1
aF0.6576741810205606
aI24
aF0.3263187692942475
aI358
aI4
aF0.6355743103826785
aF0.4631909335287708
aI432
asbasg16
I4
sbg17
(g21
S'\xa0IY\x8bF4\xff\xbf'
p398
tp399
Rp400
tp401
a(g1
(g2
g3
Ntp402
Rp403
(dp404
g7
I128
sg8
(lp405
g1
(g10
g3
Ntp406
Rp407
(dp408
g14
(lp409
I128
aI1
aF0.4882839482943456
aI70
aF0.10217279721417098
aI348
aI4
aF0.5386995815656805
aF0.6952138735443648
aI249
asbasg16
I4
sbg17
(g21
S'\xa2j\xfah\xab\x03\xfc?'
p410
tp411
Rp412
tp413
a(g1
(g2
g3
Ntp414
Rp415
(dp416
g7
I128
sg8
(lp417
g1
(g10
g3
Ntp418
Rp419
(dp420
g14
(lp421
I128
aI1
aF0.47132946331948555
aI69
aF0.05724120267128727
aI279
aI4
aF0.45875791406231
aF0.632338362881073
aI365
asbasg16
I4
sbg17
(g21
S'\xb1\xc3\x0c\xa1\n`\xf6?'
p422
tp423
Rp424
tp425
a(g1
(g2
g3
Ntp426
Rp427
(dp428
g7
I128
sg8
(lp429
g1
(g10
g3
Ntp430
Rp431
(dp432
g14
(lp433
I128
aI64
aF0.7106129044783455
aI59
aF0.05515587854014679
aI377
aI4
aF0.39048335008548596
aF0.5007922737337697
aI397
asbag1
(g10
g3
Ntp434
Rp435
(dp436
g14
(lp437
I64
aI1
aF0.7098224860632371
aI46
aF0.8276524667057595
aI424
aI4
aF0.19734808777238455
aF0.8156666902992381
aI312
asbasg16
I4
sbI-50
tp438
a(g1
(g2
g3
Ntp439
Rp440
(dp441
g7
I128
sg8
(lp442
g1
(g10
g3
Ntp443
Rp444
(dp445
g14
(lp446
I128
aI1
aF0.6340662674566302
aI78
aF0.29399590424317784
aI282
aI4
aF0.2607664092928166
aF0.7808286698871827
aI359
asbasg16
I4
sbg17
(g21
S'\xd4bF\x8e\xc5\xe6\xc2\xbf'
p447
tp448
Rp449
tp450
a(g1
(g2
g3
Ntp451
Rp452
(dp453
g7
I128
sg8
(lp454
g1
(g10
g3
Ntp455
Rp456
(dp457
g14
(lp458
I128
aI8
aF0.664608833101959
aI59
aF0.046327372874435876
aI229
aI4
aF0.17323992639769004
aF0.6158498986249259
aI315
asbag1
(g10
g3
Ntp459
Rp460
(dp461
g14
(lp462
I8
aI1
aF0.17733876782698133
aI26
aF0.2437080122396178
aI230
aI4
aF0.3464849444747726
aF0.18938212462546722
aI468
asbasg16
I4
sbI-50
tp463
a(g1
(g2
g3
Ntp464
Rp465
(dp466
g7
I128
sg8
(lp467
g1
(g10
g3
Ntp468
Rp469
(dp470
g14
(lp471
I128
aI1
aF0.393084107337184
aI71
aF0.42724891757429184
aI316
aI4
aF0.4389125635705469
aF0.35515681956832235
aI372
asbasg16
I4
sbg17
(g21
S'B\x82\xf7\xe5~\xc5\xea?'
p472
tp473
Rp474
tp475
a(g1
(g2
g3
Ntp476
Rp477
(dp478
g7
I128
sg8
(lp479
g1
(g10
g3
Ntp480
Rp481
(dp482
g14
(lp483
I128
aI1
aF0.9324986906272877
aI69
aF0.0565110980461809
aI194
aI4
aF0.5665794535660044
aF0.6943628533232361
aI359
asbasg16
I4
sbg17
(g21
S'\xfd\x1co\x8d\x9d.\xf5?'
p484
tp485
Rp486
tp487
a(g1
(g2
g3
Ntp488
Rp489
(dp490
g7
I128
sg8
(lp491
g1
(g10
g3
Ntp492
Rp493
(dp494
g14
(lp495
I128
aI4
aF0.18042388325479364
aI59
aF0.03749886720872497
aI331
aI50
aF0.009809810717884115
aF0.7309075235160822
aI234
asbag1
(g10
g3
Ntp496
Rp497
(dp498
g14
(lp499
I4
aI1
aF0.44987367282126367
aI63
aF0.7490091980029705
aI252
aI73
aF0.3689325456316448
aF0.22302105203984823
aI408
asbag1
(g10
g3
Ntp500
Rp501
(dp502
g14
(lp503
I1
aI1
aF0.8670673311307603
aI58
aF0.4763697076711524
aI289
aI4
aF0.9100861203223499
aF0.13884954741105737
aI263
asbasg16
I4
sbI-50
tp504
a(g1
(g2
g3
Ntp505
Rp506
(dp507
g7
I128
sg8
(lp508
g1
(g10
g3
Ntp509
Rp510
(dp511
g14
(lp512
I128
aI1
aF0.5377307471478266
aI71
aF0.05620583530436212
aI251
aI4
aF0.5653398045566319
aF0.6015221745146121
aI330
asbasg16
I4
sbg17
(g21
S'\xa2\xe1\x7f\xc3x\x95\x02@'
p513
tp514
Rp515
tp516
a(g1
(g2
g3
Ntp517
Rp518
(dp519
g7
I128
sg8
(lp520
g1
(g10
g3
Ntp521
Rp522
(dp523
g14
(lp524
I128
aI1
aF0.8042863292750889
aI30
aF0.05590057256254334
aI390
aI4
aF0.7692240471044383
aF0.18033982318454977
aI325
asbasg16
I4
sbg17
(g21
S'\xb4\xe9\x91\xaf\xc4\xd5\xf5?'
p525
tp526
Rp527
tp528
a(g1
(g2
g3
Ntp529
Rp530
(dp531
g7
I128
sg8
(lp532
g1
(g10
g3
Ntp533
Rp534
(dp535
g14
(lp536
I128
aI1
aF0.20039150763296165
aI69
aF0.0565110980461809
aI336
aI4
aF0.2498255156469229
aF0.40388936285108434
aI177
asbasg16
I4
sbg17
(g21
S'/Z\xfaO9L\x03@'
p537
tp538
Rp539
tp540
a(g1
(g2
g3
Ntp541
Rp542
(dp543
g7
I128
sg8
(lp544
g1
(g10
g3
Ntp545
Rp546
(dp547
g14
(lp548
I128
aI1
aF0.6613904819008184
aI27
aF0.5349375336288438
aI308
aI4
aF0.5641001555472595
aF0.8259618317745046
aI302
asbasg16
I4
sbg17
(g21
S'\xbc\x0e\x07\xe2\xdbI\xef\xbf'
p549
tp550
Rp551
tp552
a(g1
(g2
g3
Ntp553
Rp554
(dp555
g7
I128
sg8
(lp556
g1
(g10
g3
Ntp557
Rp558
(dp559
g14
(lp560
I128
aI1
aF0.5042841103073082
aI17
aF0.05847366952445998
aI11
aI4
aF0.8630675737424315
aF0.8523508293327382
aI312
asbasg16
I4
sbg17
(g21
S'\x16j\xcf~\xcd\xb5\xf6?'
p561
tp562
Rp563
tp564
a(g1
(g2
g3
Ntp565
Rp566
(dp567
g7
I128
sg8
(lp568
g1
(g10
g3
Ntp569
Rp570
(dp571
g14
(lp572
I128
aI1
aF0.28897591630304764
aI65
aF0.05753265013519195
aI220
aI4
aF0.832071608246412
aF0.07870700132871145
aI308
asbasg16
I4
sbg17
(g21
S'X+\xacS\x06\xf0\xf5?'
p573
tp574
Rp575
tp576
a(g1
(g2
g3
Ntp577
Rp578
(dp579
g7
I128
sg8
(lp580
g1
(g10
g3
Ntp581
Rp582
(dp583
g14
(lp584
I128
aI1
aF0.5118217720306532
aI47
aF0.05724120267128727
aI387
aI4
aF0.02933646862791084
aF0.03375945730053176
aI342
asbasg16
I4
sbg17
(g21
S'\x00\x00\x00\x00\x00\x00\x00\xc0'
p585
tp586
Rp587
tp588
a(g1
(g2
g3
Ntp589
Rp590
(dp591
g7
I128
sg8
(lp592
g1
(g10
g3
Ntp593
Rp594
(dp595
g14
(lp596
I128
aI1
aF0.3601241593826996
aI79
aF0.05879256337898131
aI225
aI4
aF0.8744303358972044
aF0.704680705143085
aI285
asbasg16
I4
sbg17
(g21
S'\xf1\xf9\xb3\xfc\xa43\x02@'
p597
tp598
Rp599
tp600
a(g1
(g2
g3
Ntp601
Rp602
(dp603
g7
I128
sg8
(lp604
g1
(g10
g3
Ntp605
Rp606
(dp607
g14
(lp608
I128
aI1
aF0.4992041001349824
aI66
aF0.05879256337898131
aI225
aI4
aF0.9322164764427185
aF0.7245018619922363
aI171
asbasg16
I4
sbg17
(g21
S'\x98\xd3\xcb~w\xae\xf4?'
p609
tp610
Rp611
tp612
a(g1
(g2
g3
Ntp613
Rp614
(dp615
g7
I128
sg8
(lp616
g1
(g10
g3
Ntp617
Rp618
(dp619
g14
(lp620
I128
aI1
aF0.20554110502196143
aI84
aF0.05724120267128727
aI279
aI4
aF0.7980065914065009
aF0.632338362881073
aI365
asbasg16
I4
sbg17
(g21
S'\xcc\x99-\xa5\xdd[\xfc?'
p621
tp622
Rp623
tp624
a(g1
(g2
g3
Ntp625
Rp626
(dp627
g7
I128
sg8
(lp628
g1
(g10
g3
Ntp629
Rp630
(dp631
g14
(lp632
I128
aI1
aF0.1020001875567802
aI86
aF0.05724120267128727
aI378
aI4
aF0.45875791406231
aF0.632338362881073
aI166
asbasg16
I4
sbg17
(g21
S')G\xd5\xf4\xd1V\x00@'
p633
tp634
Rp635
tp636
a(g1
(g2
g3
Ntp637
Rp638
(dp639
g7
I128
sg8
(lp640
g1
(g10
g3
Ntp641
Rp642
(dp643
g14
(lp644
I128
aI1
aF0.756248564565588
aI94
aF0.06519325591047687
aI335
aI4
aF0.45875791406231
aF0.632338362881073
aI365
asbasg16
I4
sbg17
(g21
S'\xa1^\x891\xdfH\xf5?'
p645
tp646
Rp647
tp648
a(g1
(g2
g3
Ntp649
Rp650
(dp651
g7
I128
sg8
(lp652
g1
(g10
g3
Ntp653
Rp654
(dp655
g14
(lp656
I128
aI1
aF0.22937078493781915
aI70
aF0.10217279721417098
aI9
aI4
aF0.5386995815656805
aF0.6952138735443648
aI249
asbasg16
I4
sbg17
(g21
S'\xc7\\iR|!\x01@'
p657
tp658
Rp659
tp660
a(g1
(g2
g3
Ntp661
Rp662
(dp663
g7
I128
sg8
(lp664
g1
(g10
g3
Ntp665
Rp666
(dp667
g14
(lp668
I128
aI1
aF0.47132946331948555
aI69
aF0.05724120267128727
aI279
aI4
aF0.45875791406231
aF0.632338362881073
aI365
asbasg16
I4
sbg17
(g21
S'\x99\xd5\xba\xc1\t#\x00@'
p669
tp670
Rp671
tp672
a(g1
(g2
g3
Ntp673
Rp674
(dp675
g7
I128
sg8
(lp676
g1
(g10
g3
Ntp677
Rp678
(dp679
g14
(lp680
I128
aI1
aF0.7106129044783455
aI59
aF0.05515587854014679
aI377
aI4
aF0.39048335008548596
aF0.5007922737337697
aI397
asbasg16
I4
sbg17
(g21
S'\xaa\xfb\xaa\xf6\xbd\xc6\xeb?'
p681
tp682
Rp683
tp684
a(g1
(g2
g3
Ntp685
Rp686
(dp687
g7
I128
sg8
(lp688
g1
(g10
g3
Ntp689
Rp690
(dp691
g14
(lp692
I128
aI1
aF0.05994079650512041
aI69
aF0.05724120267128727
aI140
aI4
aF0.9414175793499253
aF0.21463296419332734
aI332
asbasg16
I4
sbg17
(g21
S'8\x06\xd2\xb1l\xdd\xf5?'
p693
tp694
Rp695
tp696
a(g1
(g2
g3
Ntp697
Rp698
(dp699
g7
I128
sg8
(lp700
g1
(g10
g3
Ntp701
Rp702
(dp703
g14
(lp704
I128
aI1
aF0.664608833101959
aI59
aF0.046327372874435876
aI229
aI4
aF0.4421895383413386
aF0.7584934062134507
aI284
asbasg16
I4
sbg17
(g21
S'A-\xe5\xa4 D\xf5?'
p705
tp706
Rp707
tp708
a(g1
(g2
g3
Ntp709
Rp710
(dp711
g7
I128
sg8
(lp712
g1
(g10
g3
Ntp713
Rp714
(dp715
g14
(lp716
I128
aI1
aF0.6236513870211137
aI73
aF0.0565110980461809
aI336
aI4
aF0.6841214133676174
aF0.6943628533232361
aI490
asbasg16
I4
sbg17
(g21
S'q-\xff\xd3\xcd\x83\x00@'
p717
tp718
Rp719
tp720
a(g1
(g2
g3
Ntp721
Rp722
(dp723
g7
I128
sg8
(lp724
g1
(g10
g3
Ntp725
Rp726
(dp727
g14
(lp728
I128
aI1
aF0.9324986906272877
aI69
aF0.0565110980461809
aI191
aI4
aF0.5665794535660044
aF0.6943628533232361
aI359
asbasg16
I4
sbg17
(g21
S'\x1ak\xff\x8e\xcf\xce\x01@'
p729
tp730
Rp731
tp732
a(g1
(g2
g3
Ntp733
Rp734
(dp735
g7
I128
sg8
(lp736
g1
(g10
g3
Ntp737
Rp738
(dp739
g14
(lp740
I128
aI1
aF0.04351383547339083
aI59
aF0.29400046576885
aI133
aI92
aF0.36211116714753544
aF0.26222143212290183
aI47
asbag1
(g10
g3
Ntp741
Rp742
(dp743
g14
(lp744
I1
aI1
aF0.41076784331443206
aI58
aF0.2459835684337841
aI289
aI4
aF0.9100861203223499
aF0.13884954741105737
aI263
asbasg16
I4
sbg17
(g21
S'\\\x92V\x16\x02\xd1\xf6?'
p745
tp746
Rp747
tp748
a(g1
(g2
g3
Ntp749
Rp750
(dp751
g7
I128
sg8
(lp752
g1
(g10
g3
Ntp753
Rp754
(dp755
g14
(lp756
I128
aI2
aF0.8522575692192664
aI31
aF0.26345454953537073
aI33
aI54
aF0.4752061102783355
aF0.08240484973735107
aI487
asbag1
(g10
g3
Ntp757
Rp758
(dp759
g14
(lp760
I2
aI1
aF0.037606944886449556
aI78
aF0.02500695162173061
aI50
aI48
aF0.8439670153942121
aF0.8701131118081158
aI163
asbag1
(g10
g3
Ntp761
Rp762
(dp763
g14
(lp764
I1
aI1
aF0.7754243740306059
aI94
aF0.1230963968019948
aI273
aI4
aF0.34153201106149844
aF0.47858848605156346
aI125
asbasg16
I4
sbI-50
tp765
a(g1
(g2
g3
Ntp766
Rp767
(dp768
g7
I128
sg8
(lp769
g1
(g10
g3
Ntp770
Rp771
(dp772
g14
(lp773
I128
aI128
aF0.6322420799072785
aI86
aF0.8300751064905204
aI325
aI195
aF0.5945511835495901
aF0.46129054259812163
aI170
asbag1
(g10
g3
Ntp774
Rp775
(dp776
g14
(lp777
I128
aI8
aF0.3115989072973867
aI63
aF0.9853152300685897
aI47
aI35
aF0.0850144933436191
aF0.5435157708411056
aI359
asbag1
(g10
g3
Ntp778
Rp779
(dp780
g14
(lp781
I8
aI8
aF0.6866732580799815
aI70
aF0.7618313845106447
aI397
aI27
aF0.05263467335767946
aF0.4674112050402218
aI105
asbag1
(g10
g3
Ntp782
Rp783
(dp784
g14
(lp785
I8
aI8
aF0.5793868138845508
aI54
aF0.9249281566249631
aI21
aI52
aF0.6321763145032533
aF0.15189437079624568
aI484
asbag1
(g10
g3
Ntp786
Rp787
(dp788
g14
(lp789
I8
aI4
aF0.6559049420773098
aI72
aF0.11123046139327009
aI425
aI41
aF0.11989050022466496
aF0.29421939586823265
aI245
asbag1
(g10
g3
Ntp790
Rp791
(dp792
g14
(lp793
I4
aI2
aF0.5746668288311172
aI65
aF0.35673004090672567
aI431
aI95
aF0.7585854092031589
aF0.8484565402925072
aI167
asbag1
(g10
g3
Ntp794
Rp795
(dp796
g14
(lp797
I2
aI2
aF0.3238266447926139
aI29
aF0.18692453258429254
aI7
aI27
aF0.3091780648691945
aF0.27223009788856556
aI323
asbag1
(g10
g3
Ntp798
Rp799
(dp800
g14
(lp801
I2
aI2
aF0.7118760393366218
aI14
aF0.7106784620187014
aI491
aI54
aF0.20448951726656817
aF0.7453916054462061
aI22
asbag1
(g10
g3
Ntp802
Rp803
(dp804
g14
(lp805
I2
aI2
aF0.8561966075263052
aI69
aF0.6025801613785216
aI126
aI31
aF0.2528432461004838
aF0.31933845134756
aI472
asbag1
(g10
g3
Ntp806
Rp807
(dp808
g14
(lp809
I2
aI1
aF0.4993047591600307
aI37
aF0.08033134575324341
aI324
aI79
aF0.4405395889537247
aF0.8537182735997764
aI479
asbag1
(g10
g3
Ntp810
Rp811
(dp812
g14
(lp813
I1
aI1
aF0.19173024299787478
aI22
aF0.07835623472209874
aI342
aI4
aF0.5484131409174957
aF0.9919676018530227
aI215
asbasg16
I4
sbI-50
tp814
a(g1
(g2
g3
Ntp815
Rp816
(dp817
g7
I128
sg8
(lp818
g1
(g10
g3
Ntp819
Rp820
(dp821
g14
(lp822
I128
aI8
aF0.18366011022000084
aI71
aF0.38017697841019793
aI301
aI96
aF0.2691764752987389
aF0.8037608494753642
aI37
asbag1
(g10
g3
Ntp823
Rp824
(dp825
g14
(lp826
I8
aI2
aF0.8898326084647262
aI97
aF0.956010325174714
aI204
aI25
aF0.3976912757254921
aF0.7669117210019044
aI436
asbag1
(g10
g3
Ntp827
Rp828
(dp829
g14
(lp830
I2
aI2
aF0.9899198321854489
aI86
aF0.27577108830710984
aI153
aI50
aF0.8421970435343904
aF0.7827960118637464
aI355
asbag1
(g10
g3
Ntp831
Rp832
(dp833
g14
(lp834
I2
aI1
aF0.7948343867073552
aI17
aF0.5382406426126244
aI364
aI101
aF0.3260451696982275
aF0.48563188772059174
aI173
asbag1
(g10
g3
Ntp835
Rp836
(dp837
g14
(lp838
I1
aI1
aF0.6829620766289655
aI62
aF0.3802147727085349
aI25
aI4
aF0.6563571845186682
aF0.04300114700789859
aI90
asbasg16
I4
sbI-50
tp839
a(g1
(g2
g3
Ntp840
Rp841
(dp842
g7
I128
sg8
(lp843
g1
(g10
g3
Ntp844
Rp845
(dp846
g14
(lp847
I128
aI2
aF0.4471807024585369
aI34
aF0.6129465974895567
aI65
aI12
aF0.5872330060354386
aF0.6113079481865525
aI34
asbag1
(g10
g3
Ntp848
Rp849
(dp850
g14
(lp851
I2
aI1
aF0.4779176581996435
aI33
aF0.8237727671411691
aI389
aI70
aF0.723185417353429
aF0.849971068630973
aI126
asbag1
(g10
g3
Ntp852
Rp853
(dp854
g14
(lp855
I1
aI1
aF0.034139186707086155
aI38
aF0.7897059648244624
aI306
aI4
aF0.40842677835462193
aF0.02046983756669085
aI297
asbasg16
I4
sbg17
(g21
S'\xf5\xc0O\xd9\xd6\xaa\xf0\xbf'
p856
tp857
Rp858
tp859
a(g1
(g2
g3
Ntp860
Rp861
(dp862
g7
I128
sg8
(lp863
g1
(g10
g3
Ntp864
Rp865
(dp866
g14
(lp867
I128
aI8
aF0.9219962237815024
aI98
aF0.4515898899826044
aI49
aI106
aF0.32016134768181426
aF0.23857255813264644
aI267
asbag1
(g10
g3
Ntp868
Rp869
(dp870
g14
(lp871
I8
aI1
aF0.14620647454027536
aI90
aF0.20890693238939217
aI68
aI68
aF0.47568310964154137
aF0.27139975844008746
aI379
asbag1
(g10
g3
Ntp872
Rp873
(dp874
g14
(lp875
I1
aI1
aF0.6544420544570749
aI59
aF0.5435510558432286
aI52
aI4
aF0.40654430838498723
aF0.4192966197114708
aI78
asbasg16
I4
sbI-50
tp876
a(g1
(g2
g3
Ntp877
Rp878
(dp879
g7
I128
sg8
(lp880
g1
(g10
g3
Ntp881
Rp882
(dp883
g14
(lp884
I128
aI64
aF0.8484524594724007
aI72
aF0.1578110247068345
aI139
aI131
aF0.022815432712010364
aF0.06419346567849138
aI413
asbag1
(g10
g3
Ntp885
Rp886
(dp887
g14
(lp888
I64
aI16
aF0.2651823155037759
aI88
aF0.2993977418982413
aI71
aI38
aF0.13754714500222565
aF0.9988601571461427
aI249
asbag1
(g10
g3
Ntp889
Rp890
(dp891
g14
(lp892
I16
aI16
aF0.9128894991685306
aI46
aF0.6433167367988677
aI224
aI21
aF0.207435233893562
aF0.8053571469179457
aI63
asbag1
(g10
g3
Ntp893
Rp894
(dp895
g14
(lp896
I16
aI4
aF0.566487489609705
aI78
aF0.9112400528779759
aI296
aI30
aF0.8919643318934452
aF0.12997707986965557
aI483
asbag1
(g10
g3
Ntp897
Rp898
(dp899
g14
(lp900
I4
aI4
aF0.7114492685404938
aI24
aF0.7822377989875441
aI215
aI22
aF0.6730907633897002
aF0.022542526885650394
aI415
asbag1
(g10
g3
Ntp901
Rp902
(dp903
g14
(lp904
I4
aI2
aF0.08700941070740209
aI85
aF0.4333012341445781
aI12
aI80
aF0.9287512954066356
aF0.9192184925639539
aI412
asbag1
(g10
g3
Ntp905
Rp906
(dp907
g14
(lp908
I2
aI2
aF0.6190196097835005
aI10
aF0.3610444360395725
aI264
aI99
aF0.02181788431789955
aF0.1416881248205285
aI471
asbag1
(g10
g3
Ntp909
Rp910
(dp911
g14
(lp912
I2
aI1
aF0.6921815413608997
aI76
aF0.9664947172926887
aI224
aI53
aF0.4739832407363168
aF0.4359721168296583
aI247
asbag1
(g10
g3
Ntp913
Rp914
(dp915
g14
(lp916
I1
aI1
aF0.038365168699640795
aI32
aF0.03559725343532416
aI191
aI4
aF0.24269545619812027
aF0.28933238984547893
aI236
asbasg16
I4
sbI-50
tp917
a(g1
(g2
g3
Ntp918
Rp919
(dp920
g7
I128
sg8
(lp921
g1
(g10
g3
Ntp922
Rp923
(dp924
g14
(lp925
I128
aI2
aF0.12652039239538138
aI88
aF0.958423268169029
aI281
aI62
aF0.9508242547809005
aF0.09207634206588677
aI358
asbag1
(g10
g3
Ntp926
Rp927
(dp928
g14
(lp929
I2
aI1
aF0.10210307758982651
aI19
aF0.8308938768583207
aI151
aI8
aF0.07370013663168695
aF0.3611810776905031
aI17
asbag1
(g10
g3
Ntp930
Rp931
(dp932
g14
(lp933
I1
aI1
aF0.8233982260899507
aI54
aF0.11532145720349618
aI36
aI4
aF0.8861987980897478
aF0.41977145803213334
aI219
asbasg16
I4
sbI-50
tp934
a(g1
(g2
g3
Ntp935
Rp936
(dp937
g7
I128
sg8
(lp938
g1
(g10
g3
Ntp939
Rp940
(dp941
g14
(lp942
I128
aI64
aF0.09119196981157329
aI55
aF0.10198529685844315
aI399
aI162
aF0.09055462626111022
aF0.048428386223445474
aI117
asbag1
(g10
g3
Ntp943
Rp944
(dp945
g14
(lp946
I64
aI32
aF0.014605544309290841
aI73
aF0.6178471752386288
aI154
aI130
aF0.6351492211391371
aF0.9631911022751712
aI373
asbag1
(g10
g3
Ntp947
Rp948
(dp949
g14
(lp950
I32
aI4
aF0.3954521199355142
aI93
aF0.38908038474317974
aI184
aI83
aF0.21459798421492893
aF0.1322494723384905
aI233
asbag1
(g10
g3
Ntp951
Rp952
(dp953
g14
(lp954
I4
aI1
aF0.5575086455789258
aI54
aF0.682005792737445
aI405
aI7
aF0.2848588821145587
aF0.8622045436425372
aI252
asbag1
(g10
g3
Ntp955
Rp956
(dp957
g14
(lp958
I1
aI1
aF0.8249141333398733
aI92
aF0.7118889460610414
aI185
aI4
aF0.07534064568332421
aF0.4136063712567003
aI393
asbasg16
I4
sbI-50
tp959
a(g1
(g2
g3
Ntp960
Rp961
(dp962
g7
I128
sg8
(lp963
g1
(g10
g3
Ntp964
Rp965
(dp966
g14
(lp967
I128
aI1
aF0.6289263061606004
aI23
aF0.9033187605573382
aI172
aI49
aF0.6044038130989524
aF0.7255501920683918
aI251
asbag1
(g10
g3
Ntp968
Rp969
(dp970
g14
(lp971
I1
aI1
aF0.4765464669777093
aI85
aF0.2694966610000814
aI264
aI4
aF0.1449414886726399
aF0.8593535152456109
aI466
asbasg16
I4
sbg17
(g21
S'\x00\x00\x00\x00\x00\x00\x00\xc0'
p972
tp973
Rp974
tp975
a(g1
(g2
g3
Ntp976
Rp977
(dp978
g7
I128
sg8
(lp979
g1
(g10
g3
Ntp980
Rp981
(dp982
g14
(lp983
I128
aI4
aF0.7092120691515822
aI79
aF0.43513291083731365
aI274
aI66
aF0.6766517199832959
aF0.5117745108667101
aI160
asbag1
(g10
g3
Ntp984
Rp985
(dp986
g14
(lp987
I4
aI4
aF0.17354723073038258
aI79
aF0.5327977782719973
aI5
aI28
aF0.7483122777604834
aF0.6645667324923573
aI228
asbag1
(g10
g3
Ntp988
Rp989
(dp990
g14
(lp991
I4
aI4
aF0.22931691958542788
aI93
aF0.13001204467336946
aI297
aI103
aF0.005796135421725412
aF0.6399842239808381
aI260
asbag1
(g10
g3
Ntp992
Rp993
(dp994
g14
(lp995
I4
aI4
aF0.6858383714926175
aI68
aF0.30960108702276956
aI398
aI23
aF0.4937192845556644
aF0.18469375707877878
aI129
asbag1
(g10
g3
Ntp996
Rp997
(dp998
g14
(lp999
I4
aI2
aF0.28610289704445324
aI82
aF0.5892115894248601
aI497
aI44
aF0.4904038721477345
aF0.7917771889410498
aI474
asbag1
(g10
g3
Ntp1000
Rp1001
(dp1002
g14
(lp1003
I2
aI2
aF0.7864549609594884
aI51
aF0.8312807955961529
aI473
aI11
aF0.1466476750298571
aF0.29539823933431175
aI22
asbag1
(g10
g3
Ntp1004
Rp1005
(dp1006
g14
(lp1007
I2
aI1
aF0.698236155386385
aI100
aF0.9188488529859375
aI243
aI52
aF0.2644555695811843
aF0.7607161845778863
aI255
asbag1
(g10
g3
Ntp1008
Rp1009
(dp1010
g14
(lp1011
I1
aI1
aF0.5747701108353015
aI19
aF0.033907133560008296
aI439
aI4
aF0.8730575966513722
aF0.7476552413388857
aI358
asbasg16
I4
sbI-50
tp1012
a(g1
(g2
g3
Ntp1013
Rp1014
(dp1015
g7
I128
sg8
(lp1016
g1
(g10
g3
Ntp1017
Rp1018
(dp1019
g14
(lp1020
I128
aI8
aF0.22457528404906657
aI62
aF0.026749999216051368
aI301
aI71
aF0.40606403575107497
aF0.8816888650121502
aI494
asbag1
(g10
g3
Ntp1021
Rp1022
(dp1023
g14
(lp1024
I8
aI4
aF0.20797485027728768
aI31
aF0.6978862848962195
aI226
aI48
aF0.015696304104018233
aF0.5106662076108589
aI251
asbag1
(g10
g3
Ntp1025
Rp1026
(dp1027
g14
(lp1028
I4
aI2
aF0.5191337376438263
aI35
aF0.11870349425232529
aI497
aI73
aF0.2397233481995198
aF0.24936705539266468
aI242
asbag1
(g10
g3
Ntp1029
Rp1030
(dp1031
g14
(lp1032
I2
aI1
aF0.7893741412249468
aI47
aF0.565040859839684
aI105
aI65
aF0.9624448829242167
aF0.7634936458723851
aI78
asbag1
(g10
g3
Ntp1033
Rp1034
(dp1035
g14
(lp1036
I1
aI1
aF0.963717205946435
aI53
aF0.6289393987561612
aI395
aI4
aF0.6694697521743642
aF0.11705812949279293
aI274
asbasg16
I4
sbI-50
tp1037
a(g1
(g2
g3
Ntp1038
Rp1039
(dp1040
g7
I128
sg8
(lp1041
g1
(g10
g3
Ntp1042
Rp1043
(dp1044
g14
(lp1045
I128
aI128
aF0.8421010957305601
aI71
aF0.7808789920800623
aI165
aI155
aF0.5225304216628882
aF0.6113064376656933
aI179
asbag1
(g10
g3
Ntp1046
Rp1047
(dp1048
g14
(lp1049
I128
aI32
aF0.06356841804547286
aI37
aF0.3689813906008875
aI128
aI102
aF0.06165915154571544
aF0.6834319920492958
aI223
asbag1
(g10
g3
Ntp1050
Rp1051
(dp1052
g14
(lp1053
I32
aI2
aF0.33184013672356216
aI29
aF0.8848995591465296
aI46
aI27
aF0.040035942756022846
aF0.9081578094624341
aI83
asbag1
(g10
g3
Ntp1054
Rp1055
(dp1056
g14
(lp1057
I2
aI2
aF0.8494165809790962
aI48
aF0.7326543352287909
aI74
aI83
aF0.6104472921962786
aF0.42170664877957753
aI35
asbag1
(g10
g3
Ntp1058
Rp1059
(dp1060
g14
(lp1061
I2
aI2
aF0.8812177379807594
aI58
aF0.5787827379490377
aI387
aI9
aF0.4089413326623229
aF0.31129343585128066
aI334
asbag1
(g10
g3
Ntp1062
Rp1063
(dp1064
g14
(lp1065
I2
aI1
aF0.025458625502008836
aI11
aF0.46739193449655037
aI158
aI42
aF0.4566254793222807
aF0.5820135898769847
aI342
asbag1
(g10
g3
Ntp1066
Rp1067
(dp1068
g14
(lp1069
I1
aI1
aF0.8019137386453139
aI75
aF0.14986715931274341
aI121
aI4
aF0.9911908434865159
aF0.3642401255671124
aI200
asbasg16
I4
sbI-50
tp1070
a(g1
(g2
g3
Ntp1071
Rp1072
(dp1073
g7
I128
sg8
(lp1074
g1
(g10
g3
Ntp1075
Rp1076
(dp1077
g14
(lp1078
I128
aI8
aF0.17331303108904728
aI29
aF0.6693481462749429
aI391
aI54
aF0.22954496747178588
aF0.9202083270139692
aI92
asbag1
(g10
g3
Ntp1079
Rp1080
(dp1081
g14
(lp1082
I8
aI2
aF0.720036805923718
aI92
aF0.26842823803055604
aI77
aI66
aF0.15542904521370926
aF0.6075677633765709
aI323
asbag1
(g10
g3
Ntp1083
Rp1084
(dp1085
g14
(lp1086
I2
aI2
aF0.7441876121451253
aI47
aF0.2523596085609018
aI194
aI77
aF0.9654459086028525
aF0.9779407066298362
aI211
asbag1
(g10
g3
Ntp1087
Rp1088
(dp1089
g14
(lp1090
I2
aI1
aF0.9120980515733592
aI15
aF0.10601600488406382
aI353
aI61
aF0.7805103761771017
aF0.6433934594223301
aI164
asbag1
(g10
g3
Ntp1091
Rp1092
(dp1093
g14
(lp1094
I1
aI1
aF0.22206294975499652
aI52
aF0.09693436082534701
aI98
aI4
aF0.5161169519074781
aF0.0830212766749624
aI150
asbasg16
I4
sbI-50
tp1095
a(g1
(g2
g3
Ntp1096
Rp1097
(dp1098
g7
I128
sg8
(lp1099
g1
(g10
g3
Ntp1100
Rp1101
(dp1102
g14
(lp1103
I128
aI16
aF0.24623719355642637
aI94
aF0.05754924512133841
aI37
aI63
aF0.5815707829372692
aF0.38278774555172534
aI409
asbag1
(g10
g3
Ntp1104
Rp1105
(dp1106
g14
(lp1107
I16
aI2
aF0.794032145909
aI93
aF0.9438279914175421
aI95
aI100
aF0.3630295371320368
aF0.22770046880223527
aI335
asbag1
(g10
g3
Ntp1108
Rp1109
(dp1110
g14
(lp1111
I2
aI2
aF0.7042701390351663
aI41
aF0.43391404169583536
aI202
aI73
aF0.08603803190044979
aF0.21745784191295336
aI77
asbag1
(g10
g3
Ntp1112
Rp1113
(dp1114
g14
(lp1115
I2
aI1
aF0.6061013399405877
aI81
aF0.8022589847609002
aI302
aI91
aF0.41483318110351075
aF0.7018802201395669
aI204
asbag1
(g10
g3
Ntp1116
Rp1117
(dp1118
g14
(lp1119
I1
aI1
aF0.8534214283606899
aI23
aF0.4582466158133075
aI155
aI4
aF0.16962835307491053
aF0.5438745467088824
aI232
asbasg16
I4
sbI-50
tp1120
a(g1
(g2
g3
Ntp1121
Rp1122
(dp1123
g7
I128
sg8
(lp1124
g1
(g10
g3
Ntp1125
Rp1126
(dp1127
g14
(lp1128
I128
aI128
aF0.9291456409499099
aI76
aF0.19765127563256057
aI167
aI201
aF0.5106691713598783
aF0.23372112609782758
aI7
asbag1
(g10
g3
Ntp1129
Rp1130
(dp1131
g14
(lp1132
I128
aI8
aF0.26077762583483854
aI100
aF0.7724421809087403
aI122
aI99
aF0.6705967432231611
aF0.06374193901186742
aI39
asbag1
(g10
g3
Ntp1133
Rp1134
(dp1135
g14
(lp1136
I8
aI1
aF0.08955378593752206
aI97
aF0.7126327758485305
aI55
aI45
aF0.5491058132795026
aF0.7338495122109894
aI180
asbag1
(g10
g3
Ntp1137
Rp1138
(dp1139
g14
(lp1140
I1
aI1
aF0.256511846841586
aI76
aF0.8165961801832827
aI193
aI4
aF0.07785789401479437
aF0.5494356829079291
aI107
asbasg16
I4
sbI-50
tp1141
a(g1
(g2
g3
Ntp1142
Rp1143
(dp1144
g7
I128
sg8
(lp1145
g1
(g10
g3
Ntp1146
Rp1147
(dp1148
g14
(lp1149
I128
aI2
aF0.9750459600937356
aI21
aF0.11774691742763743
aI300
aI94
aF0.3562425974397042
aF0.892750203811674
aI160
asbag1
(g10
g3
Ntp1150
Rp1151
(dp1152
g14
(lp1153
I2
aI2
aF0.21544671206578447
aI99
aF0.8656920379159825
aI109
aI97
aF0.7194026538205563
aF0.9428664486373481
aI366
asbag1
(g10
g3
Ntp1154
Rp1155
(dp1156
g14
(lp1157
I2
aI2
aF0.4887586524333801
aI42
aF0.703590792594145
aI353
aI42
aF0.1830273712168694
aF0.1052518607055899
aI275
asbag1
(g10
g3
Ntp1158
Rp1159
(dp1160
g14
(lp1161
I2
aI2
aF0.12598197588840376
aI20
aF0.5996658391676841
aI105
aI78
aF0.6929769715928058
aF0.9496272937025905
aI105
asbag1
(g10
g3
Ntp1162
Rp1163
(dp1164
g14
(lp1165
I2
aI1
aF0.8717524524791319
aI22
aF0.16420404869455218
aI460
aI61
aF0.9350861482344328
aF0.7895073625154356
aI489
asbag1
(g10
g3
Ntp1166
Rp1167
(dp1168
g14
(lp1169
I1
aI1
aF0.6347572549208976
aI60
aF0.008343246410311922
aI2
aI4
aF0.04172857010786302
aF0.5413020134721488
aI492
asbasg16
I4
sbI-50
tp1170
a(g1
(g2
g3
Ntp1171
Rp1172
(dp1173
g7
I128
sg8
(lp1174
g1
(g10
g3
Ntp1175
Rp1176
(dp1177
g14
(lp1178
I128
aI2
aF0.8138343168363533
aI35
aF0.6954604286784652
aI41
aI64
aF0.3195578475583446
aF0.7825144740990571
aI451
asbag1
(g10
g3
Ntp1179
Rp1180
(dp1181
g14
(lp1182
I2
aI2
aF0.4863245786133994
aI79
aF0.6322850741456192
aI10
aI73
aF0.34153495709062687
aF0.529026396151273
aI356
asbag1
(g10
g3
Ntp1183
Rp1184
(dp1185
g14
(lp1186
I2
aI1
aF0.5929593400106614
aI93
aF0.218867021164323
aI9
aI9
aF0.14781782234722918
aF0.8282991397150916
aI455
asbag1
(g10
g3
Ntp1187
Rp1188
(dp1189
g14
(lp1190
I1
aI1
aF0.31223555101179
aI52
aF0.8824535506180753
aI373
aI4
aF0.8439604177407289
aF0.8533434749530643
aI332
asbasg16
I4
sbI-50
tp1191
a(g1
(g2
g3
Ntp1192
Rp1193
(dp1194
g7
I128
sg8
(lp1195
g1
(g10
g3
Ntp1196
Rp1197
(dp1198
g14
(lp1199
I128
aI128
aF0.42268844752701296
aI99
aF0.14775448665368707
aI168
aI132
aF0.6634806947674613
aF0.7066244150341274
aI394
asbag1
(g10
g3
Ntp1200
Rp1201
(dp1202
g14
(lp1203
I128
aI16
aF0.30247767667256087
aI49
aF0.23322004668933793
aI430
aI104
aF0.5241831155926647
aF0.13750072153618442
aI440
asbag1
(g10
g3
Ntp1204
Rp1205
(dp1206
g14
(lp1207
I16
aI2
aF0.45621094599877665
aI84
aF0.17828223969698553
aI156
aI8
aF0.2883433352587227
aF0.8574884330068289
aI32
asbag1
(g10
g3
Ntp1208
Rp1209
(dp1210
g14
(lp1211
I2
aI2
aF0.0905115112140652
aI92
aF0.7301821420340963
aI50
aI50
aF0.49086600791817014
aF0.22005225849450916
aI444
asbag1
(g10
g3
Ntp1212
Rp1213
(dp1214
g14
(lp1215
I2
aI1
aF0.45450890794419185
aI88
aF0.7387963140319574
aI385
aI96
aF0.8330245757697993
aF0.03582516428611138
aI16
asbag1
(g10
g3
Ntp1216
Rp1217
(dp1218
g14
(lp1219
I1
aI1
aF0.574309679469084
aI47
aF0.3306746790512356
aI324
aI4
aF0.6896016298083565
aF0.7118767926802622
aI399
asbasg16
I4
sbI-50
tp1220
a(g1
(g2
g3
Ntp1221
Rp1222
(dp1223
g7
I128
sg8
(lp1224
g1
(g10
g3
Ntp1225
Rp1226
(dp1227
g14
(lp1228
I128
aI4
aF0.17959049937486704
aI82
aF0.44226692474601415
aI259
aI101
aF0.45563767829303814
aF0.7199386796522161
aI388
asbag1
(g10
g3
Ntp1229
Rp1230
(dp1231
g14
(lp1232
I4
aI2
aF0.22083626507158527
aI29
aF0.33055369032958115
aI133
aI41
aF0.7876902868288252
aF0.9051023528905019
aI103
asbag1
(g10
g3
Ntp1233
Rp1234
(dp1235
g14
(lp1236
I2
aI1
aF0.10170207513360185
aI65
aF0.9905652383796218
aI313
aI89
aF0.03898081043812074
aF0.9826805426194696
aI465
asbag1
(g10
g3
Ntp1237
Rp1238
(dp1239
g14
(lp1240
I1
aI1
aF0.12161479349949544
aI11
aF0.5652379057636231
aI67
aI4
aF0.5406599539702255
aF0.7193626451336487
aI82
asbasg16
I4
sbI-50
tp1241
a(g1
(g2
g3
Ntp1242
Rp1243
(dp1244
g7
I128
sg8
(lp1245
g1
(g10
g3
Ntp1246
Rp1247
(dp1248
g14
(lp1249
I128
aI128
aF0.9807905502140885
aI90
aF0.258545214767664
aI150
aI141
aF0.33105534003484893
aF0.520030096974114
aI274
asbag1
(g10
g3
Ntp1250
Rp1251
(dp1252
g14
(lp1253
I128
aI1
aF0.1222065263052462
aI68
aF0.7693645871202182
aI316
aI35
aF0.7049896977387032
aF0.9476134691485693
aI189
asbag1
(g10
g3
Ntp1254
Rp1255
(dp1256
g14
(lp1257
I1
aI1
aF0.05558848165270969
aI26
aF0.14128382798778816
aI92
aI4
aF0.7304202195568321
aF0.1363139388205079
aI182
asbasg16
I4
sbI-50
tp1258
a.